
Autonomous_Car_With_ESP32.elf:     file format elf32-avr

Sections:
Idx Name          Size      VMA       LMA       File off  Algn
  0 .text         000027fa  00000000  00000000  00000094  2**1
                  CONTENTS, ALLOC, LOAD, READONLY, CODE
  1 .data         00000026  00800060  000027fa  0000288e  2**0
                  CONTENTS, ALLOC, LOAD, DATA
  2 .bss          00000023  00800086  00800086  000028b4  2**0
                  ALLOC
  3 .stab         00002a00  00000000  00000000  000028b4  2**2
                  CONTENTS, READONLY, DEBUGGING
  4 .stabstr      000008fb  00000000  00000000  000052b4  2**0
                  CONTENTS, READONLY, DEBUGGING
  5 .debug_aranges 000003c8  00000000  00000000  00005bb0  2**3
                  CONTENTS, READONLY, DEBUGGING
  6 .debug_info   000035d0  00000000  00000000  00005f78  2**0
                  CONTENTS, READONLY, DEBUGGING
  7 .debug_abbrev 000012c3  00000000  00000000  00009548  2**0
                  CONTENTS, READONLY, DEBUGGING
  8 .debug_line   00002198  00000000  00000000  0000a80b  2**0
                  CONTENTS, READONLY, DEBUGGING
  9 .debug_frame  00000c3c  00000000  00000000  0000c9a4  2**2
                  CONTENTS, READONLY, DEBUGGING
 10 .debug_str    000010b0  00000000  00000000  0000d5e0  2**0
                  CONTENTS, READONLY, DEBUGGING
 11 .debug_loc    000026ae  00000000  00000000  0000e690  2**0
                  CONTENTS, READONLY, DEBUGGING
 12 .debug_ranges 00000058  00000000  00000000  00010d3e  2**0
                  CONTENTS, READONLY, DEBUGGING

Disassembly of section .text:

00000000 <__vectors>:
       0:	0c 94 73 00 	jmp	0xe6	; 0xe6 <__ctors_end>
       4:	0c 94 77 0a 	jmp	0x14ee	; 0x14ee <__vector_1>
       8:	0c 94 90 00 	jmp	0x120	; 0x120 <__bad_interrupt>
       c:	0c 94 a0 0a 	jmp	0x1540	; 0x1540 <__vector_3>
      10:	0c 94 68 0c 	jmp	0x18d0	; 0x18d0 <__vector_4>
      14:	0c 94 2c 0c 	jmp	0x1858	; 0x1858 <__vector_5>
      18:	0c 94 90 00 	jmp	0x120	; 0x120 <__bad_interrupt>
      1c:	0c 94 90 00 	jmp	0x120	; 0x120 <__bad_interrupt>
      20:	0c 94 90 00 	jmp	0x120	; 0x120 <__bad_interrupt>
      24:	0c 94 90 00 	jmp	0x120	; 0x120 <__bad_interrupt>
      28:	0c 94 17 0b 	jmp	0x162e	; 0x162e <__vector_10>
      2c:	0c 94 90 00 	jmp	0x120	; 0x120 <__bad_interrupt>
      30:	0c 94 90 00 	jmp	0x120	; 0x120 <__bad_interrupt>
      34:	0c 94 e4 0c 	jmp	0x19c8	; 0x19c8 <__vector_13>
      38:	0c 94 0d 0d 	jmp	0x1a1a	; 0x1a1a <__vector_14>
      3c:	0c 94 36 0d 	jmp	0x1a6c	; 0x1a6c <__vector_15>
      40:	0c 94 90 00 	jmp	0x120	; 0x120 <__bad_interrupt>
      44:	0c 94 90 00 	jmp	0x120	; 0x120 <__bad_interrupt>
      48:	0c 94 90 00 	jmp	0x120	; 0x120 <__bad_interrupt>
      4c:	0c 94 90 00 	jmp	0x120	; 0x120 <__bad_interrupt>
      50:	0c 94 90 00 	jmp	0x120	; 0x120 <__bad_interrupt>
      54:	ce 00       	.word	0x00ce	; ????
      56:	97 00       	.word	0x0097	; ????
      58:	97 00       	.word	0x0097	; ????
      5a:	97 00       	.word	0x0097	; ????
      5c:	97 00       	.word	0x0097	; ????
      5e:	97 00       	.word	0x0097	; ????
      60:	97 00       	.word	0x0097	; ????
      62:	97 00       	.word	0x0097	; ????
      64:	97 00       	.word	0x0097	; ????
      66:	97 00       	.word	0x0097	; ????
      68:	97 00       	.word	0x0097	; ????
      6a:	97 00       	.word	0x0097	; ????
      6c:	97 00       	.word	0x0097	; ????
      6e:	97 00       	.word	0x0097	; ????
      70:	97 00       	.word	0x0097	; ????
      72:	97 00       	.word	0x0097	; ????
      74:	97 00       	.word	0x0097	; ????
      76:	97 00       	.word	0x0097	; ????
      78:	ad 00       	.word	0x00ad	; ????
      7a:	f5 00       	.word	0x00f5	; ????
      7c:	97 00       	.word	0x0097	; ????
      7e:	97 00       	.word	0x0097	; ????
      80:	aa 00       	.word	0x00aa	; ????
      82:	b6 00       	.word	0x00b6	; ????
      84:	bc 00       	.word	0x00bc	; ????
      86:	97 00       	.word	0x0097	; ????
      88:	97 00       	.word	0x0097	; ????
      8a:	97 00       	.word	0x0097	; ????
      8c:	97 00       	.word	0x0097	; ????
      8e:	97 00       	.word	0x0097	; ????
      90:	97 00       	.word	0x0097	; ????
      92:	97 00       	.word	0x0097	; ????
      94:	97 00       	.word	0x0097	; ????
      96:	97 00       	.word	0x0097	; ????
      98:	97 00       	.word	0x0097	; ????
      9a:	b0 00       	.word	0x00b0	; ????
      9c:	97 00       	.word	0x0097	; ????
      9e:	e1 00       	.word	0x00e1	; ????
      a0:	19 01       	movw	r2, r18
      a2:	eb 00       	.word	0x00eb	; ????
      a4:	07 01       	movw	r0, r14
      a6:	97 00       	.word	0x0097	; ????
      a8:	97 00       	.word	0x0097	; ????
      aa:	97 00       	.word	0x0097	; ????
      ac:	97 00       	.word	0x0097	; ????
      ae:	97 00       	.word	0x0097	; ????
      b0:	97 00       	.word	0x0097	; ????
      b2:	97 00       	.word	0x0097	; ????
      b4:	97 00       	.word	0x0097	; ????
      b6:	97 00       	.word	0x0097	; ????
      b8:	97 00       	.word	0x0097	; ????
      ba:	fe 00       	.word	0x00fe	; ????
      bc:	97 00       	.word	0x0097	; ????
      be:	97 00       	.word	0x0097	; ????
      c0:	97 00       	.word	0x0097	; ????
      c2:	97 00       	.word	0x0097	; ????
      c4:	97 00       	.word	0x0097	; ????
      c6:	b3 00       	.word	0x00b3	; ????
      c8:	b9 00       	.word	0x00b9	; ????
      ca:	97 00       	.word	0x0097	; ????
      cc:	97 00       	.word	0x0097	; ????
      ce:	97 00       	.word	0x0097	; ????
      d0:	97 00       	.word	0x0097	; ????
      d2:	97 00       	.word	0x0097	; ????
      d4:	97 00       	.word	0x0097	; ????
      d6:	bf 00       	.word	0x00bf	; ????
      d8:	97 00       	.word	0x0097	; ????
      da:	97 00       	.word	0x0097	; ????
      dc:	97 00       	.word	0x0097	; ????
      de:	e6 00       	.word	0x00e6	; ????
      e0:	1e 01       	movw	r2, r28
      e2:	f0 00       	.word	0x00f0	; ????
      e4:	10 01       	movw	r2, r0

000000e6 <__ctors_end>:
      e6:	11 24       	eor	r1, r1
      e8:	1f be       	out	0x3f, r1	; 63
      ea:	cf e5       	ldi	r28, 0x5F	; 95
      ec:	d8 e0       	ldi	r29, 0x08	; 8
      ee:	de bf       	out	0x3e, r29	; 62
      f0:	cd bf       	out	0x3d, r28	; 61

000000f2 <__do_copy_data>:
      f2:	10 e0       	ldi	r17, 0x00	; 0
      f4:	a0 e6       	ldi	r26, 0x60	; 96
      f6:	b0 e0       	ldi	r27, 0x00	; 0
      f8:	ea ef       	ldi	r30, 0xFA	; 250
      fa:	f7 e2       	ldi	r31, 0x27	; 39
      fc:	02 c0       	rjmp	.+4      	; 0x102 <__do_copy_data+0x10>
      fe:	05 90       	lpm	r0, Z+
     100:	0d 92       	st	X+, r0
     102:	a6 38       	cpi	r26, 0x86	; 134
     104:	b1 07       	cpc	r27, r17
     106:	d9 f7       	brne	.-10     	; 0xfe <__do_copy_data+0xc>

00000108 <__do_clear_bss>:
     108:	10 e0       	ldi	r17, 0x00	; 0
     10a:	a6 e8       	ldi	r26, 0x86	; 134
     10c:	b0 e0       	ldi	r27, 0x00	; 0
     10e:	01 c0       	rjmp	.+2      	; 0x112 <.do_clear_bss_start>

00000110 <.do_clear_bss_loop>:
     110:	1d 92       	st	X+, r1

00000112 <.do_clear_bss_start>:
     112:	a9 3a       	cpi	r26, 0xA9	; 169
     114:	b1 07       	cpc	r27, r17
     116:	e1 f7       	brne	.-8      	; 0x110 <.do_clear_bss_loop>
     118:	0e 94 e1 01 	call	0x3c2	; 0x3c2 <main>
     11c:	0c 94 fb 13 	jmp	0x27f6	; 0x27f6 <_exit>

00000120 <__bad_interrupt>:
     120:	0c 94 00 00 	jmp	0	; 0x0 <__vectors>

00000124 <WiFiMode_SuperLoop>:
		WiFiMode_SuperLoop();
	}	
}

void WiFiMode_SuperLoop()
{
     124:	cf 93       	push	r28
     126:	df 93       	push	r29
     128:	0f 92       	push	r0
     12a:	cd b7       	in	r28, 0x3d	; 61
     12c:	de b7       	in	r29, 0x3e	; 62
	u8 WiFiValue;
	while(1)
	{	
		ESP32_ReceiveChar(&WiFiValue);
     12e:	ce 01       	movw	r24, r28
     130:	01 96       	adiw	r24, 0x01	; 1
     132:	0e 94 6f 02 	call	0x4de	; 0x4de <ESP32_ReceiveChar>
		switch(WiFiValue)
     136:	89 81       	ldd	r24, Y+1	; 0x01
     138:	90 e0       	ldi	r25, 0x00	; 0
     13a:	c0 97       	sbiw	r24, 0x30	; 48
     13c:	89 34       	cpi	r24, 0x49	; 73
     13e:	91 05       	cpc	r25, r1
     140:	b0 f7       	brcc	.-20     	; 0x12e <WiFiMode_SuperLoop+0xa>
     142:	86 5d       	subi	r24, 0xD6	; 214
     144:	9f 4f       	sbci	r25, 0xFF	; 255
     146:	fc 01       	movw	r30, r24
     148:	ee 0f       	add	r30, r30
     14a:	ff 1f       	adc	r31, r31
     14c:	05 90       	lpm	r0, Z+
     14e:	f4 91       	lpm	r31, Z
     150:	e0 2d       	mov	r30, r0
     152:	09 94       	ijmp
		{
			case 'F' :
			WHEEL_MoveForward();
     154:	0e 94 f4 04 	call	0x9e8	; 0x9e8 <WHEEL_MoveForward>
			break;
     158:	ea cf       	rjmp	.-44     	; 0x12e <WiFiMode_SuperLoop+0xa>
			
			case 'B' :
			WHEEL_MoveBackward ();
     15a:	0e 94 0e 05 	call	0xa1c	; 0xa1c <WHEEL_MoveBackward>
			break;
     15e:	e7 cf       	rjmp	.-50     	; 0x12e <WiFiMode_SuperLoop+0xa>
			
			case 'S' :
			WHEEL_Stop ();
     160:	0e 94 28 05 	call	0xa50	; 0xa50 <WHEEL_Stop>
			break;
     164:	e4 cf       	rjmp	.-56     	; 0x12e <WiFiMode_SuperLoop+0xa>
			
			case 'i' :
			WHEEL_MoveForwardRight ();
     166:	0e 94 42 05 	call	0xa84	; 0xa84 <WHEEL_MoveForwardRight>
			break;
     16a:	e1 cf       	rjmp	.-62     	; 0x12e <WiFiMode_SuperLoop+0xa>
			
			case 'G' :
			WHEEL_MoveForwardleft ();
     16c:	0e 94 5c 05 	call	0xab8	; 0xab8 <WHEEL_MoveForwardleft>
			break;
     170:	de cf       	rjmp	.-68     	; 0x12e <WiFiMode_SuperLoop+0xa>
			
			case 'j' :
			WHEEL_MoveBackwardRight ();
     172:	0e 94 90 05 	call	0xb20	; 0xb20 <WHEEL_MoveBackwardRight>
			break;
     176:	db cf       	rjmp	.-74     	; 0x12e <WiFiMode_SuperLoop+0xa>
			
			case 'H' :
			WHEEL_MoveBackwardleft ();
     178:	0e 94 76 05 	call	0xaec	; 0xaec <WHEEL_MoveBackwardleft>
			break;
     17c:	d8 cf       	rjmp	.-80     	; 0x12e <WiFiMode_SuperLoop+0xa>
			
			case 'q' :
			if(Speed<MAX_SPEED)
     17e:	80 91 60 00 	lds	r24, 0x0060
     182:	90 91 61 00 	lds	r25, 0x0061
     186:	84 36       	cpi	r24, 0x64	; 100
     188:	91 05       	cpc	r25, r1
     18a:	88 f6       	brcc	.-94     	; 0x12e <WiFiMode_SuperLoop+0xa>
			{
				Speed+=1;
     18c:	01 96       	adiw	r24, 0x01	; 1
     18e:	90 93 61 00 	sts	0x0061, r25
     192:	80 93 60 00 	sts	0x0060, r24
				WHEEL_SendDutyCycleAndStart(Speed);
     196:	0e 94 ab 05 	call	0xb56	; 0xb56 <WHEEL_SendDutyCycleAndStart>
     19a:	c9 cf       	rjmp	.-110    	; 0x12e <WiFiMode_SuperLoop+0xa>
				//Do NoThing
			}
			break;
			
			case '0' :
			if (Speed>MIN_SPEED)
     19c:	80 91 60 00 	lds	r24, 0x0060
     1a0:	90 91 61 00 	lds	r25, 0x0061
     1a4:	00 97       	sbiw	r24, 0x00	; 0
     1a6:	19 f2       	breq	.-122    	; 0x12e <WiFiMode_SuperLoop+0xa>
			{
				Speed-=1;
     1a8:	01 97       	sbiw	r24, 0x01	; 1
     1aa:	90 93 61 00 	sts	0x0061, r25
     1ae:	80 93 60 00 	sts	0x0060, r24
				Speed == MIN_SPEED? (WHEEL_Stop()) : (WHEEL_SendDutyCycleAndStart(Speed)) ;
     1b2:	00 97       	sbiw	r24, 0x00	; 0
     1b4:	19 f4       	brne	.+6      	; 0x1bc <WiFiMode_SuperLoop+0x98>
     1b6:	0e 94 28 05 	call	0xa50	; 0xa50 <WHEEL_Stop>
     1ba:	b9 cf       	rjmp	.-142    	; 0x12e <WiFiMode_SuperLoop+0xa>
     1bc:	0e 94 ab 05 	call	0xb56	; 0xb56 <WHEEL_SendDutyCycleAndStart>
     1c0:	b6 cf       	rjmp	.-148    	; 0x12e <WiFiMode_SuperLoop+0xa>
				//Do NoThing
			}
			break;
			
			case 'U' :         //BACK LIGHT ON
			LED_TurnON(LED_BACK_PORT,LED_BACK_PIN);
     1c2:	80 e0       	ldi	r24, 0x00	; 0
     1c4:	62 e0       	ldi	r22, 0x02	; 2
     1c6:	0e 94 af 04 	call	0x95e	; 0x95e <LED_TurnON>
			break;
     1ca:	b1 cf       	rjmp	.-158    	; 0x12e <WiFiMode_SuperLoop+0xa>
			
			case 'u' :         //BACK LIGHT OFF
			LED_TurnOFF(LED_BACK_PORT,LED_BACK_PIN);
     1cc:	80 e0       	ldi	r24, 0x00	; 0
     1ce:	62 e0       	ldi	r22, 0x02	; 2
     1d0:	0e 94 b7 04 	call	0x96e	; 0x96e <LED_TurnOFF>
			break;
     1d4:	ac cf       	rjmp	.-168    	; 0x12e <WiFiMode_SuperLoop+0xa>
			
			case 'W' :         //Flash  ON
			LED_TurnON(LED_FLASH_PORT,LED_FLASH_PIN);
     1d6:	80 e0       	ldi	r24, 0x00	; 0
     1d8:	61 e0       	ldi	r22, 0x01	; 1
     1da:	0e 94 af 04 	call	0x95e	; 0x95e <LED_TurnON>
			break;
     1de:	a7 cf       	rjmp	.-178    	; 0x12e <WiFiMode_SuperLoop+0xa>
			
			case 'w' :         //Flash  OFF
			LED_TurnOFF(LED_FLASH_PORT,LED_FLASH_PIN);
     1e0:	80 e0       	ldi	r24, 0x00	; 0
     1e2:	61 e0       	ldi	r22, 0x01	; 1
     1e4:	0e 94 b7 04 	call	0x96e	; 0x96e <LED_TurnOFF>
			break;
     1e8:	a2 cf       	rjmp	.-188    	; 0x12e <WiFiMode_SuperLoop+0xa>
			
			case 'C' :         //FR  ON
			LED_TurnON(LED_FORWARD_RIGHT_PORT,LED_FORWARD_RIGHT_PIN);
     1ea:	80 e0       	ldi	r24, 0x00	; 0
     1ec:	64 e0       	ldi	r22, 0x04	; 4
     1ee:	0e 94 af 04 	call	0x95e	; 0x95e <LED_TurnON>
			LED_TurnOFF(LED_FORWARD_LEFT_PORT,LED_FORWARD_LEFT_PIN);
     1f2:	80 e0       	ldi	r24, 0x00	; 0
     1f4:	63 e0       	ldi	r22, 0x03	; 3
     1f6:	0e 94 b7 04 	call	0x96e	; 0x96e <LED_TurnOFF>
			break;
     1fa:	99 cf       	rjmp	.-206    	; 0x12e <WiFiMode_SuperLoop+0xa>
			
			case 'c' :         //FR  OFF
			LED_TurnOFF(LED_FORWARD_RIGHT_PORT,LED_FORWARD_RIGHT_PIN);
     1fc:	80 e0       	ldi	r24, 0x00	; 0
     1fe:	64 e0       	ldi	r22, 0x04	; 4
     200:	0e 94 b7 04 	call	0x96e	; 0x96e <LED_TurnOFF>
			LED_TurnOFF(LED_FORWARD_LEFT_PORT,LED_FORWARD_LEFT_PIN);
     204:	80 e0       	ldi	r24, 0x00	; 0
     206:	63 e0       	ldi	r22, 0x03	; 3
     208:	0e 94 b7 04 	call	0x96e	; 0x96e <LED_TurnOFF>
			break;
     20c:	90 cf       	rjmp	.-224    	; 0x12e <WiFiMode_SuperLoop+0xa>
			
			case 'X' :         //FL  ON
			LED_TurnOFF(LED_FORWARD_RIGHT_PORT,LED_FORWARD_RIGHT_PIN);
     20e:	80 e0       	ldi	r24, 0x00	; 0
     210:	64 e0       	ldi	r22, 0x04	; 4
     212:	0e 94 b7 04 	call	0x96e	; 0x96e <LED_TurnOFF>
			LED_TurnON(LED_FORWARD_LEFT_PORT,LED_FORWARD_LEFT_PIN);
     216:	80 e0       	ldi	r24, 0x00	; 0
     218:	63 e0       	ldi	r22, 0x03	; 3
     21a:	0e 94 af 04 	call	0x95e	; 0x95e <LED_TurnON>
			break;
     21e:	87 cf       	rjmp	.-242    	; 0x12e <WiFiMode_SuperLoop+0xa>
			
			case 'x' :         //FL  OFF
			LED_TurnOFF(LED_FORWARD_RIGHT_PORT,LED_FORWARD_RIGHT_PIN);
     220:	80 e0       	ldi	r24, 0x00	; 0
     222:	64 e0       	ldi	r22, 0x04	; 4
     224:	0e 94 b7 04 	call	0x96e	; 0x96e <LED_TurnOFF>
			LED_TurnOFF(LED_FORWARD_LEFT_PORT,LED_FORWARD_LEFT_PIN);
     228:	80 e0       	ldi	r24, 0x00	; 0
     22a:	63 e0       	ldi	r22, 0x03	; 3
     22c:	0e 94 b7 04 	call	0x96e	; 0x96e <LED_TurnOFF>
			break;
     230:	7e cf       	rjmp	.-260    	; 0x12e <WiFiMode_SuperLoop+0xa>
			
			
			case 'V' :         //Horn  ON
			BUZZER_TurnOn(BUZZER_PORT,BUZZER_PIN);
     232:	80 e0       	ldi	r24, 0x00	; 0
     234:	65 e0       	ldi	r22, 0x05	; 5
     236:	0e 94 55 02 	call	0x4aa	; 0x4aa <BUZZER_TurnOn>
			break;
     23a:	79 cf       	rjmp	.-270    	; 0x12e <WiFiMode_SuperLoop+0xa>
			
			case 'v' :         //Horn  OFF
			BUZZER_TurnOff(BUZZER_PORT,BUZZER_PIN);
     23c:	80 e0       	ldi	r24, 0x00	; 0
     23e:	65 e0       	ldi	r22, 0x05	; 5
     240:	0e 94 5d 02 	call	0x4ba	; 0x4ba <BUZZER_TurnOff>
			break;
     244:	74 cf       	rjmp	.-280    	; 0x12e <WiFiMode_SuperLoop+0xa>

00000246 <UltraSonicMode_SuperLoop>:
	}
}


void UltraSonicMode_SuperLoop()
{
     246:	cf 93       	push	r28
     248:	df 93       	push	r29
     24a:	cd b7       	in	r28, 0x3d	; 61
     24c:	de b7       	in	r29, 0x3e	; 62
     24e:	2c 97       	sbiw	r28, 0x0c	; 12
     250:	0f b6       	in	r0, 0x3f	; 63
     252:	f8 94       	cli
     254:	de bf       	out	0x3e, r29	; 62
     256:	0f be       	out	0x3f, r0	; 63
     258:	cd bf       	out	0x3d, r28	; 61
	 f64 UltraSonic_ForwardValue;
	 f64 UltraSonic_RightValue;
	 f64 UltraSonic_LeftValue;
	while(1)
	{
		Ultrasonic_ReadDistance(&UltraSonic_ForwardValue);
     25a:	ce 01       	movw	r24, r28
     25c:	01 96       	adiw	r24, 0x01	; 1
     25e:	0e 94 37 06 	call	0xc6e	; 0xc6e <Ultrasonic_ReadDistance>
		
		if (UltraSonic_ForwardValue>30.00)
     262:	69 81       	ldd	r22, Y+1	; 0x01
     264:	7a 81       	ldd	r23, Y+2	; 0x02
     266:	8b 81       	ldd	r24, Y+3	; 0x03
     268:	9c 81       	ldd	r25, Y+4	; 0x04
     26a:	20 e0       	ldi	r18, 0x00	; 0
     26c:	30 e0       	ldi	r19, 0x00	; 0
     26e:	40 ef       	ldi	r20, 0xF0	; 240
     270:	51 e4       	ldi	r21, 0x41	; 65
     272:	0e 94 0e 0f 	call	0x1e1c	; 0x1e1c <__gesf2>
     276:	18 16       	cp	r1, r24
     278:	1c f4       	brge	.+6      	; 0x280 <UltraSonicMode_SuperLoop+0x3a>
		{
			WHEEL_MoveForward();
     27a:	0e 94 f4 04 	call	0x9e8	; 0x9e8 <WHEEL_MoveForward>
     27e:	97 c0       	rjmp	.+302    	; 0x3ae <UltraSonicMode_SuperLoop+0x168>
		}
		else
		{
			//	MOVE A Little Backward
			LED_TurnON(LED_BACK_PORT,LED_BACK_PIN);
     280:	80 e0       	ldi	r24, 0x00	; 0
     282:	62 e0       	ldi	r22, 0x02	; 2
     284:	0e 94 af 04 	call	0x95e	; 0x95e <LED_TurnON>
			BUZZER_TurnOn(BUZZER_PORT,BUZZER_PIN);
     288:	80 e0       	ldi	r24, 0x00	; 0
     28a:	65 e0       	ldi	r22, 0x05	; 5
     28c:	0e 94 55 02 	call	0x4aa	; 0x4aa <BUZZER_TurnOn>
			WHEEL_MoveBackward();
     290:	0e 94 0e 05 	call	0xa1c	; 0xa1c <WHEEL_MoveBackward>
	#else
		//round up by default
		__ticks_dc = (uint32_t)(ceil(fabs(__tmp)));
	#endif

	__builtin_avr_delay_cycles(__ticks_dc);
     294:	8f ef       	ldi	r24, 0xFF	; 255
     296:	99 e6       	ldi	r25, 0x69	; 105
     298:	a8 e1       	ldi	r26, 0x18	; 24
     29a:	81 50       	subi	r24, 0x01	; 1
     29c:	90 40       	sbci	r25, 0x00	; 0
     29e:	a0 40       	sbci	r26, 0x00	; 0
     2a0:	e1 f7       	brne	.-8      	; 0x29a <UltraSonicMode_SuperLoop+0x54>
     2a2:	00 c0       	rjmp	.+0      	; 0x2a4 <UltraSonicMode_SuperLoop+0x5e>
     2a4:	00 00       	nop
			_delay_ms(500);
			LED_TurnOFF(LED_BACK_PORT,LED_BACK_PIN);
     2a6:	80 e0       	ldi	r24, 0x00	; 0
     2a8:	62 e0       	ldi	r22, 0x02	; 2
     2aa:	0e 94 b7 04 	call	0x96e	; 0x96e <LED_TurnOFF>
			BUZZER_TurnOff(BUZZER_PORT,BUZZER_PIN);
     2ae:	80 e0       	ldi	r24, 0x00	; 0
     2b0:	65 e0       	ldi	r22, 0x05	; 5
     2b2:	0e 94 5d 02 	call	0x4ba	; 0x4ba <BUZZER_TurnOff>
			WHEEL_Stop();
     2b6:	0e 94 28 05 	call	0xa50	; 0xa50 <WHEEL_Stop>
			
			// Measure Distance At Right
			SERVO_TurnON(RIGHT_Angle);
     2ba:	60 e0       	ldi	r22, 0x00	; 0
     2bc:	70 e0       	ldi	r23, 0x00	; 0
     2be:	cb 01       	movw	r24, r22
     2c0:	0e 94 19 06 	call	0xc32	; 0xc32 <SERVO_TurnON>
			
			Ultrasonic_ReadDistance(&UltraSonic_RightValue);
     2c4:	ce 01       	movw	r24, r28
     2c6:	05 96       	adiw	r24, 0x05	; 5
     2c8:	0e 94 37 06 	call	0xc6e	; 0xc6e <Ultrasonic_ReadDistance>
     2cc:	8f ef       	ldi	r24, 0xFF	; 255
     2ce:	99 e6       	ldi	r25, 0x69	; 105
     2d0:	a8 e1       	ldi	r26, 0x18	; 24
     2d2:	81 50       	subi	r24, 0x01	; 1
     2d4:	90 40       	sbci	r25, 0x00	; 0
     2d6:	a0 40       	sbci	r26, 0x00	; 0
     2d8:	e1 f7       	brne	.-8      	; 0x2d2 <UltraSonicMode_SuperLoop+0x8c>
     2da:	00 c0       	rjmp	.+0      	; 0x2dc <UltraSonicMode_SuperLoop+0x96>
     2dc:	00 00       	nop
			_delay_ms(500);
			// Measure Distance At Left
			SERVO_TurnON(LEFT_Angle);
     2de:	60 e0       	ldi	r22, 0x00	; 0
     2e0:	70 e0       	ldi	r23, 0x00	; 0
     2e2:	84 e3       	ldi	r24, 0x34	; 52
     2e4:	93 e4       	ldi	r25, 0x43	; 67
     2e6:	0e 94 19 06 	call	0xc32	; 0xc32 <SERVO_TurnON>
		
			Ultrasonic_ReadDistance(&UltraSonic_LeftValue);
     2ea:	ce 01       	movw	r24, r28
     2ec:	09 96       	adiw	r24, 0x09	; 9
     2ee:	0e 94 37 06 	call	0xc6e	; 0xc6e <Ultrasonic_ReadDistance>
     2f2:	8f ef       	ldi	r24, 0xFF	; 255
     2f4:	99 e6       	ldi	r25, 0x69	; 105
     2f6:	a8 e1       	ldi	r26, 0x18	; 24
     2f8:	81 50       	subi	r24, 0x01	; 1
     2fa:	90 40       	sbci	r25, 0x00	; 0
     2fc:	a0 40       	sbci	r26, 0x00	; 0
     2fe:	e1 f7       	brne	.-8      	; 0x2f8 <UltraSonicMode_SuperLoop+0xb2>
     300:	00 c0       	rjmp	.+0      	; 0x302 <UltraSonicMode_SuperLoop+0xbc>
     302:	00 00       	nop
	
			_delay_ms(500);
			if (UltraSonic_RightValue > UltraSonic_LeftValue)
     304:	6d 81       	ldd	r22, Y+5	; 0x05
     306:	7e 81       	ldd	r23, Y+6	; 0x06
     308:	8f 81       	ldd	r24, Y+7	; 0x07
     30a:	98 85       	ldd	r25, Y+8	; 0x08
     30c:	29 85       	ldd	r18, Y+9	; 0x09
     30e:	3a 85       	ldd	r19, Y+10	; 0x0a
     310:	4b 85       	ldd	r20, Y+11	; 0x0b
     312:	5c 85       	ldd	r21, Y+12	; 0x0c
     314:	0e 94 0e 0f 	call	0x1e1c	; 0x1e1c <__gesf2>
     318:	18 16       	cp	r1, r24
     31a:	2c f5       	brge	.+74     	; 0x366 <UltraSonicMode_SuperLoop+0x120>
			{
				//MOVE Right
				SERVO_TurnON(FORWARD_Angle);
     31c:	60 e0       	ldi	r22, 0x00	; 0
     31e:	70 e0       	ldi	r23, 0x00	; 0
     320:	84 eb       	ldi	r24, 0xB4	; 180
     322:	92 e4       	ldi	r25, 0x42	; 66
     324:	0e 94 19 06 	call	0xc32	; 0xc32 <SERVO_TurnON>
     328:	8f ef       	ldi	r24, 0xFF	; 255
     32a:	91 ee       	ldi	r25, 0xE1	; 225
     32c:	a4 e0       	ldi	r26, 0x04	; 4
     32e:	81 50       	subi	r24, 0x01	; 1
     330:	90 40       	sbci	r25, 0x00	; 0
     332:	a0 40       	sbci	r26, 0x00	; 0
     334:	e1 f7       	brne	.-8      	; 0x32e <UltraSonicMode_SuperLoop+0xe8>
     336:	00 c0       	rjmp	.+0      	; 0x338 <UltraSonicMode_SuperLoop+0xf2>
     338:	00 00       	nop
				_delay_ms(100);
				WHEEL_MoveForwardRight();
     33a:	0e 94 42 05 	call	0xa84	; 0xa84 <WHEEL_MoveForwardRight>
				LED_TurnON(LED_FORWARD_RIGHT_PORT,LED_FORWARD_RIGHT_PIN);
     33e:	80 e0       	ldi	r24, 0x00	; 0
     340:	64 e0       	ldi	r22, 0x04	; 4
     342:	0e 94 af 04 	call	0x95e	; 0x95e <LED_TurnON>
     346:	8f ef       	ldi	r24, 0xFF	; 255
     348:	99 e6       	ldi	r25, 0x69	; 105
     34a:	a8 e1       	ldi	r26, 0x18	; 24
     34c:	81 50       	subi	r24, 0x01	; 1
     34e:	90 40       	sbci	r25, 0x00	; 0
     350:	a0 40       	sbci	r26, 0x00	; 0
     352:	e1 f7       	brne	.-8      	; 0x34c <UltraSonicMode_SuperLoop+0x106>
     354:	00 c0       	rjmp	.+0      	; 0x356 <UltraSonicMode_SuperLoop+0x110>
     356:	00 00       	nop
				_delay_ms(500);
				LED_TurnOFF(LED_FORWARD_RIGHT_PORT,LED_FORWARD_RIGHT_PIN);
     358:	80 e0       	ldi	r24, 0x00	; 0
     35a:	64 e0       	ldi	r22, 0x04	; 4
     35c:	0e 94 b7 04 	call	0x96e	; 0x96e <LED_TurnOFF>
				WHEEL_Stop();
     360:	0e 94 28 05 	call	0xa50	; 0xa50 <WHEEL_Stop>
     364:	24 c0       	rjmp	.+72     	; 0x3ae <UltraSonicMode_SuperLoop+0x168>
				
			}
			else
			{
				//MOVE Left 
				SERVO_TurnON(FORWARD_Angle);
     366:	60 e0       	ldi	r22, 0x00	; 0
     368:	70 e0       	ldi	r23, 0x00	; 0
     36a:	84 eb       	ldi	r24, 0xB4	; 180
     36c:	92 e4       	ldi	r25, 0x42	; 66
     36e:	0e 94 19 06 	call	0xc32	; 0xc32 <SERVO_TurnON>
     372:	8f ef       	ldi	r24, 0xFF	; 255
     374:	91 ee       	ldi	r25, 0xE1	; 225
     376:	a4 e0       	ldi	r26, 0x04	; 4
     378:	81 50       	subi	r24, 0x01	; 1
     37a:	90 40       	sbci	r25, 0x00	; 0
     37c:	a0 40       	sbci	r26, 0x00	; 0
     37e:	e1 f7       	brne	.-8      	; 0x378 <UltraSonicMode_SuperLoop+0x132>
     380:	00 c0       	rjmp	.+0      	; 0x382 <UltraSonicMode_SuperLoop+0x13c>
     382:	00 00       	nop
				_delay_ms(100);
				WHEEL_MoveForwardleft();
     384:	0e 94 5c 05 	call	0xab8	; 0xab8 <WHEEL_MoveForwardleft>
				LED_TurnON(LED_FORWARD_LEFT_PORT,LED_FORWARD_LEFT_PIN);
     388:	80 e0       	ldi	r24, 0x00	; 0
     38a:	63 e0       	ldi	r22, 0x03	; 3
     38c:	0e 94 af 04 	call	0x95e	; 0x95e <LED_TurnON>
     390:	8f ef       	ldi	r24, 0xFF	; 255
     392:	99 e6       	ldi	r25, 0x69	; 105
     394:	a8 e1       	ldi	r26, 0x18	; 24
     396:	81 50       	subi	r24, 0x01	; 1
     398:	90 40       	sbci	r25, 0x00	; 0
     39a:	a0 40       	sbci	r26, 0x00	; 0
     39c:	e1 f7       	brne	.-8      	; 0x396 <UltraSonicMode_SuperLoop+0x150>
     39e:	00 c0       	rjmp	.+0      	; 0x3a0 <UltraSonicMode_SuperLoop+0x15a>
     3a0:	00 00       	nop
				_delay_ms(500);
				LED_TurnOFF(LED_FORWARD_LEFT_PORT,LED_FORWARD_LEFT_PIN);
     3a2:	80 e0       	ldi	r24, 0x00	; 0
     3a4:	63 e0       	ldi	r22, 0x03	; 3
     3a6:	0e 94 b7 04 	call	0x96e	; 0x96e <LED_TurnOFF>
				WHEEL_Stop();
     3aa:	0e 94 28 05 	call	0xa50	; 0xa50 <WHEEL_Stop>
     3ae:	8f ef       	ldi	r24, 0xFF	; 255
     3b0:	99 e6       	ldi	r25, 0x69	; 105
     3b2:	a8 e1       	ldi	r26, 0x18	; 24
     3b4:	81 50       	subi	r24, 0x01	; 1
     3b6:	90 40       	sbci	r25, 0x00	; 0
     3b8:	a0 40       	sbci	r26, 0x00	; 0
     3ba:	e1 f7       	brne	.-8      	; 0x3b4 <UltraSonicMode_SuperLoop+0x16e>
     3bc:	00 c0       	rjmp	.+0      	; 0x3be <UltraSonicMode_SuperLoop+0x178>
     3be:	00 00       	nop
     3c0:	4c cf       	rjmp	.-360    	; 0x25a <UltraSonicMode_SuperLoop+0x14>

000003c2 <main>:
#define MAX_SPEED                         100
#define MIN_SPEED                         0


int main(void)
{
     3c2:	cf 93       	push	r28
     3c4:	df 93       	push	r29
     3c6:	0f 92       	push	r0
     3c8:	cd b7       	in	r28, 0x3d	; 61
     3ca:	de b7       	in	r29, 0x3e	; 62
	u8 ModeValue ;
	
	GLBI_Enable();
     3cc:	0e 94 c9 0a 	call	0x1592	; 0x1592 <GLBI_Enable>
	
	BUTTON_init(BUTTON_MODE_PORT,BUTTON_MODE_PIN);
     3d0:	83 e0       	ldi	r24, 0x03	; 3
     3d2:	62 e0       	ldi	r22, 0x02	; 2
     3d4:	0e 94 37 02 	call	0x46e	; 0x46e <BUTTON_init>
	BUTTON_ReadValue(BUTTON_MODE_PORT,BUTTON_MODE_PIN,&ModeValue,BUTTON_PullDown);
     3d8:	83 e0       	ldi	r24, 0x03	; 3
     3da:	62 e0       	ldi	r22, 0x02	; 2
     3dc:	ae 01       	movw	r20, r28
     3de:	4f 5f       	subi	r20, 0xFF	; 255
     3e0:	5f 4f       	sbci	r21, 0xFF	; 255
     3e2:	20 e0       	ldi	r18, 0x00	; 0
     3e4:	0e 94 46 02 	call	0x48c	; 0x48c <BUTTON_ReadValue>
	
	ESP32_init();
     3e8:	0e 94 6c 02 	call	0x4d8	; 0x4d8 <ESP32_init>
	//LCD_init();
	WHEEL_Init();
     3ec:	0e 94 c6 04 	call	0x98c	; 0x98c <WHEEL_Init>
	WHEEL_MoveForward();
     3f0:	0e 94 f4 04 	call	0x9e8	; 0x9e8 <WHEEL_MoveForward>
	WHEEL_SendDutyCycleAndStart(Speed);
     3f4:	80 91 60 00 	lds	r24, 0x0060
     3f8:	0e 94 ab 05 	call	0xb56	; 0xb56 <WHEEL_SendDutyCycleAndStart>
	
	SERVO_init();
     3fc:	0e 94 11 06 	call	0xc22	; 0xc22 <SERVO_init>
	SERVO_TurnON(FORWARD_Angle);
     400:	60 e0       	ldi	r22, 0x00	; 0
     402:	70 e0       	ldi	r23, 0x00	; 0
     404:	84 eb       	ldi	r24, 0xB4	; 180
     406:	92 e4       	ldi	r25, 0x42	; 66
     408:	0e 94 19 06 	call	0xc32	; 0xc32 <SERVO_TurnON>
	
	Ultrasonic_init();
     40c:	0e 94 31 06 	call	0xc62	; 0xc62 <Ultrasonic_init>
	
	LED_init(LED_BACK_PORT,LED_BACK_PIN);
     410:	80 e0       	ldi	r24, 0x00	; 0
     412:	62 e0       	ldi	r22, 0x02	; 2
     414:	0e 94 a7 04 	call	0x94e	; 0x94e <LED_init>
	LED_init(LED_FORWARD_RIGHT_PORT,LED_FORWARD_RIGHT_PIN);
     418:	80 e0       	ldi	r24, 0x00	; 0
     41a:	64 e0       	ldi	r22, 0x04	; 4
     41c:	0e 94 a7 04 	call	0x94e	; 0x94e <LED_init>
	LED_init(LED_FORWARD_LEFT_PORT,LED_FORWARD_LEFT_PIN);
     420:	80 e0       	ldi	r24, 0x00	; 0
     422:	63 e0       	ldi	r22, 0x03	; 3
     424:	0e 94 a7 04 	call	0x94e	; 0x94e <LED_init>
	LED_init(LED_FLASH_PORT,LED_FLASH_PIN);
     428:	80 e0       	ldi	r24, 0x00	; 0
     42a:	61 e0       	ldi	r22, 0x01	; 1
     42c:	0e 94 a7 04 	call	0x94e	; 0x94e <LED_init>
	BUZZER_init(BUZZER_PORT,BUZZER_PIN);
     430:	80 e0       	ldi	r24, 0x00	; 0
     432:	65 e0       	ldi	r22, 0x05	; 5
     434:	0e 94 4d 02 	call	0x49a	; 0x49a <BUZZER_init>
	
	LED_TurnOFF(LED_FORWARD_RIGHT_PORT,LED_FORWARD_RIGHT_PIN);
     438:	80 e0       	ldi	r24, 0x00	; 0
     43a:	64 e0       	ldi	r22, 0x04	; 4
     43c:	0e 94 b7 04 	call	0x96e	; 0x96e <LED_TurnOFF>
	LED_TurnOFF(LED_FORWARD_LEFT_PORT,LED_FORWARD_LEFT_PIN);
     440:	80 e0       	ldi	r24, 0x00	; 0
     442:	63 e0       	ldi	r22, 0x03	; 3
     444:	0e 94 b7 04 	call	0x96e	; 0x96e <LED_TurnOFF>
	LED_TurnOFF(LED_BACK_PORT,LED_BACK_PIN);
     448:	80 e0       	ldi	r24, 0x00	; 0
     44a:	62 e0       	ldi	r22, 0x02	; 2
     44c:	0e 94 b7 04 	call	0x96e	; 0x96e <LED_TurnOFF>
	LED_TurnOFF(LED_FLASH_PORT,LED_FLASH_PIN);
     450:	80 e0       	ldi	r24, 0x00	; 0
     452:	61 e0       	ldi	r22, 0x01	; 1
     454:	0e 94 b7 04 	call	0x96e	; 0x96e <LED_TurnOFF>
	BUZZER_TurnOff(BUZZER_PORT,BUZZER_PIN);
     458:	80 e0       	ldi	r24, 0x00	; 0
     45a:	65 e0       	ldi	r22, 0x05	; 5
     45c:	0e 94 5d 02 	call	0x4ba	; 0x4ba <BUZZER_TurnOff>
	
	
	if (ULTRASONIC_MODE == ModeValue)
     460:	89 81       	ldd	r24, Y+1	; 0x01
     462:	88 23       	and	r24, r24
     464:	11 f4       	brne	.+4      	; 0x46a <main+0xa8>
	{
 	
		UltraSonicMode_SuperLoop();
     466:	0e 94 23 01 	call	0x246	; 0x246 <UltraSonicMode_SuperLoop>
	}
	else
	{
		
		WiFiMode_SuperLoop();
     46a:	0e 94 92 00 	call	0x124	; 0x124 <WiFiMode_SuperLoop>

0000046e <BUTTON_init>:
     46e:	84 30       	cpi	r24, 0x04	; 4
     470:	28 f4       	brcc	.+10     	; 0x47c <BUTTON_init+0xe>
     472:	68 30       	cpi	r22, 0x08	; 8
     474:	18 f4       	brcc	.+6      	; 0x47c <BUTTON_init+0xe>
     476:	40 e0       	ldi	r20, 0x00	; 0
     478:	0e 94 07 07 	call	0xe0e	; 0xe0e <DIO_SetPinDirection>
     47c:	08 95       	ret

0000047e <BUTTON_ActivePullUp>:
     47e:	84 30       	cpi	r24, 0x04	; 4
     480:	20 f4       	brcc	.+8      	; 0x48a <BUTTON_ActivePullUp+0xc>
     482:	68 30       	cpi	r22, 0x08	; 8
     484:	10 f4       	brcc	.+4      	; 0x48a <BUTTON_ActivePullUp+0xc>
     486:	0e 94 d5 08 	call	0x11aa	; 0x11aa <DIO_activePinInPullUpResistance>
     48a:	08 95       	ret

0000048c <BUTTON_ReadValue>:
     48c:	84 30       	cpi	r24, 0x04	; 4
     48e:	20 f4       	brcc	.+8      	; 0x498 <BUTTON_ReadValue+0xc>
     490:	68 30       	cpi	r22, 0x08	; 8
     492:	10 f4       	brcc	.+4      	; 0x498 <BUTTON_ReadValue+0xc>
     494:	0e 94 81 08 	call	0x1102	; 0x1102 <DIO_ReadValue>
     498:	08 95       	ret

0000049a <BUZZER_init>:
     49a:	84 30       	cpi	r24, 0x04	; 4
     49c:	28 f4       	brcc	.+10     	; 0x4a8 <BUZZER_init+0xe>
     49e:	68 30       	cpi	r22, 0x08	; 8
     4a0:	18 f4       	brcc	.+6      	; 0x4a8 <BUZZER_init+0xe>
     4a2:	41 e0       	ldi	r20, 0x01	; 1
     4a4:	0e 94 07 07 	call	0xe0e	; 0xe0e <DIO_SetPinDirection>
     4a8:	08 95       	ret

000004aa <BUZZER_TurnOn>:
     4aa:	84 30       	cpi	r24, 0x04	; 4
     4ac:	28 f4       	brcc	.+10     	; 0x4b8 <BUZZER_TurnOn+0xe>
     4ae:	68 30       	cpi	r22, 0x08	; 8
     4b0:	18 f4       	brcc	.+6      	; 0x4b8 <BUZZER_TurnOn+0xe>
     4b2:	41 e0       	ldi	r20, 0x01	; 1
     4b4:	0e 94 9d 07 	call	0xf3a	; 0xf3a <DIO_SetPinValue>
     4b8:	08 95       	ret

000004ba <BUZZER_TurnOff>:
     4ba:	84 30       	cpi	r24, 0x04	; 4
     4bc:	28 f4       	brcc	.+10     	; 0x4c8 <BUZZER_TurnOff+0xe>
     4be:	68 30       	cpi	r22, 0x08	; 8
     4c0:	18 f4       	brcc	.+6      	; 0x4c8 <BUZZER_TurnOff+0xe>
     4c2:	40 e0       	ldi	r20, 0x00	; 0
     4c4:	0e 94 9d 07 	call	0xf3a	; 0xf3a <DIO_SetPinValue>
     4c8:	08 95       	ret

000004ca <BUZZER_Toggle>:
     4ca:	84 30       	cpi	r24, 0x04	; 4
     4cc:	20 f4       	brcc	.+8      	; 0x4d6 <BUZZER_Toggle+0xc>
     4ce:	68 30       	cpi	r22, 0x08	; 8
     4d0:	10 f4       	brcc	.+4      	; 0x4d6 <BUZZER_Toggle+0xc>
     4d2:	0e 94 33 08 	call	0x1066	; 0x1066 <DIO_TogglePinValue>
     4d6:	08 95       	ret

000004d8 <ESP32_init>:
     4d8:	0e 94 a5 0c 	call	0x194a	; 0x194a <UART_init>
     4dc:	08 95       	ret

000004de <ESP32_ReceiveChar>:
     4de:	0e 94 b2 0c 	call	0x1964	; 0x1964 <UART_ReceiveChar>
     4e2:	08 95       	ret

000004e4 <ESP32_TransimitChar>:
     4e4:	0e 94 ba 0c 	call	0x1974	; 0x1974 <UART_TransmiteChar>
     4e8:	08 95       	ret

000004ea <ESP32_TransimitString>:
     4ea:	0e 94 bf 0c 	call	0x197e	; 0x197e <UART_TransmiteString>
     4ee:	08 95       	ret

000004f0 <private_WriteHalfPort>:
     4f0:	cf 93       	push	r28
     4f2:	c8 2f       	mov	r28, r24
     4f4:	80 fd       	sbrc	r24, 0
     4f6:	06 c0       	rjmp	.+12     	; 0x504 <private_WriteHalfPort+0x14>
     4f8:	82 e0       	ldi	r24, 0x02	; 2
     4fa:	64 e0       	ldi	r22, 0x04	; 4
     4fc:	40 e0       	ldi	r20, 0x00	; 0
     4fe:	0e 94 9d 07 	call	0xf3a	; 0xf3a <DIO_SetPinValue>
     502:	05 c0       	rjmp	.+10     	; 0x50e <private_WriteHalfPort+0x1e>
     504:	82 e0       	ldi	r24, 0x02	; 2
     506:	64 e0       	ldi	r22, 0x04	; 4
     508:	41 e0       	ldi	r20, 0x01	; 1
     50a:	0e 94 9d 07 	call	0xf3a	; 0xf3a <DIO_SetPinValue>
     50e:	8c 2f       	mov	r24, r28
     510:	86 95       	lsr	r24
     512:	80 fd       	sbrc	r24, 0
     514:	06 c0       	rjmp	.+12     	; 0x522 <private_WriteHalfPort+0x32>
     516:	82 e0       	ldi	r24, 0x02	; 2
     518:	65 e0       	ldi	r22, 0x05	; 5
     51a:	40 e0       	ldi	r20, 0x00	; 0
     51c:	0e 94 9d 07 	call	0xf3a	; 0xf3a <DIO_SetPinValue>
     520:	05 c0       	rjmp	.+10     	; 0x52c <private_WriteHalfPort+0x3c>
     522:	82 e0       	ldi	r24, 0x02	; 2
     524:	65 e0       	ldi	r22, 0x05	; 5
     526:	41 e0       	ldi	r20, 0x01	; 1
     528:	0e 94 9d 07 	call	0xf3a	; 0xf3a <DIO_SetPinValue>
     52c:	8c 2f       	mov	r24, r28
     52e:	86 95       	lsr	r24
     530:	86 95       	lsr	r24
     532:	80 fd       	sbrc	r24, 0
     534:	06 c0       	rjmp	.+12     	; 0x542 <private_WriteHalfPort+0x52>
     536:	82 e0       	ldi	r24, 0x02	; 2
     538:	66 e0       	ldi	r22, 0x06	; 6
     53a:	40 e0       	ldi	r20, 0x00	; 0
     53c:	0e 94 9d 07 	call	0xf3a	; 0xf3a <DIO_SetPinValue>
     540:	05 c0       	rjmp	.+10     	; 0x54c <private_WriteHalfPort+0x5c>
     542:	82 e0       	ldi	r24, 0x02	; 2
     544:	66 e0       	ldi	r22, 0x06	; 6
     546:	41 e0       	ldi	r20, 0x01	; 1
     548:	0e 94 9d 07 	call	0xf3a	; 0xf3a <DIO_SetPinValue>
     54c:	c6 95       	lsr	r28
     54e:	c6 95       	lsr	r28
     550:	c6 95       	lsr	r28
     552:	c0 fd       	sbrc	r28, 0
     554:	06 c0       	rjmp	.+12     	; 0x562 <private_WriteHalfPort+0x72>
     556:	82 e0       	ldi	r24, 0x02	; 2
     558:	67 e0       	ldi	r22, 0x07	; 7
     55a:	40 e0       	ldi	r20, 0x00	; 0
     55c:	0e 94 9d 07 	call	0xf3a	; 0xf3a <DIO_SetPinValue>
     560:	05 c0       	rjmp	.+10     	; 0x56c <private_WriteHalfPort+0x7c>
     562:	82 e0       	ldi	r24, 0x02	; 2
     564:	67 e0       	ldi	r22, 0x07	; 7
     566:	41 e0       	ldi	r20, 0x01	; 1
     568:	0e 94 9d 07 	call	0xf3a	; 0xf3a <DIO_SetPinValue>
     56c:	cf 91       	pop	r28
     56e:	08 95       	ret

00000570 <LCD_sendComnd>:
     570:	cf 93       	push	r28
     572:	c8 2f       	mov	r28, r24
     574:	81 e0       	ldi	r24, 0x01	; 1
     576:	61 e0       	ldi	r22, 0x01	; 1
     578:	40 e0       	ldi	r20, 0x00	; 0
     57a:	0e 94 9d 07 	call	0xf3a	; 0xf3a <DIO_SetPinValue>
     57e:	81 e0       	ldi	r24, 0x01	; 1
     580:	62 e0       	ldi	r22, 0x02	; 2
     582:	40 e0       	ldi	r20, 0x00	; 0
     584:	0e 94 9d 07 	call	0xf3a	; 0xf3a <DIO_SetPinValue>
     588:	8c 2f       	mov	r24, r28
     58a:	82 95       	swap	r24
     58c:	8f 70       	andi	r24, 0x0F	; 15
     58e:	0e 94 78 02 	call	0x4f0	; 0x4f0 <private_WriteHalfPort>
     592:	81 e0       	ldi	r24, 0x01	; 1
     594:	63 e0       	ldi	r22, 0x03	; 3
     596:	41 e0       	ldi	r20, 0x01	; 1
     598:	0e 94 9d 07 	call	0xf3a	; 0xf3a <DIO_SetPinValue>
     59c:	8f e9       	ldi	r24, 0x9F	; 159
     59e:	9f e0       	ldi	r25, 0x0F	; 15
     5a0:	01 97       	sbiw	r24, 0x01	; 1
     5a2:	f1 f7       	brne	.-4      	; 0x5a0 <LCD_sendComnd+0x30>
     5a4:	00 c0       	rjmp	.+0      	; 0x5a6 <LCD_sendComnd+0x36>
     5a6:	00 00       	nop
     5a8:	81 e0       	ldi	r24, 0x01	; 1
     5aa:	63 e0       	ldi	r22, 0x03	; 3
     5ac:	40 e0       	ldi	r20, 0x00	; 0
     5ae:	0e 94 9d 07 	call	0xf3a	; 0xf3a <DIO_SetPinValue>
     5b2:	8c 2f       	mov	r24, r28
     5b4:	0e 94 78 02 	call	0x4f0	; 0x4f0 <private_WriteHalfPort>
     5b8:	81 e0       	ldi	r24, 0x01	; 1
     5ba:	63 e0       	ldi	r22, 0x03	; 3
     5bc:	41 e0       	ldi	r20, 0x01	; 1
     5be:	0e 94 9d 07 	call	0xf3a	; 0xf3a <DIO_SetPinValue>
     5c2:	8f e9       	ldi	r24, 0x9F	; 159
     5c4:	9f e0       	ldi	r25, 0x0F	; 15
     5c6:	01 97       	sbiw	r24, 0x01	; 1
     5c8:	f1 f7       	brne	.-4      	; 0x5c6 <LCD_sendComnd+0x56>
     5ca:	00 c0       	rjmp	.+0      	; 0x5cc <LCD_sendComnd+0x5c>
     5cc:	00 00       	nop
     5ce:	81 e0       	ldi	r24, 0x01	; 1
     5d0:	63 e0       	ldi	r22, 0x03	; 3
     5d2:	40 e0       	ldi	r20, 0x00	; 0
     5d4:	0e 94 9d 07 	call	0xf3a	; 0xf3a <DIO_SetPinValue>
     5d8:	cf 91       	pop	r28
     5da:	08 95       	ret

000005dc <LCD_init>:
     5dc:	81 e0       	ldi	r24, 0x01	; 1
     5de:	61 e0       	ldi	r22, 0x01	; 1
     5e0:	41 e0       	ldi	r20, 0x01	; 1
     5e2:	0e 94 07 07 	call	0xe0e	; 0xe0e <DIO_SetPinDirection>
     5e6:	81 e0       	ldi	r24, 0x01	; 1
     5e8:	62 e0       	ldi	r22, 0x02	; 2
     5ea:	41 e0       	ldi	r20, 0x01	; 1
     5ec:	0e 94 07 07 	call	0xe0e	; 0xe0e <DIO_SetPinDirection>
     5f0:	81 e0       	ldi	r24, 0x01	; 1
     5f2:	63 e0       	ldi	r22, 0x03	; 3
     5f4:	41 e0       	ldi	r20, 0x01	; 1
     5f6:	0e 94 07 07 	call	0xe0e	; 0xe0e <DIO_SetPinDirection>
     5fa:	82 e0       	ldi	r24, 0x02	; 2
     5fc:	64 e0       	ldi	r22, 0x04	; 4
     5fe:	41 e0       	ldi	r20, 0x01	; 1
     600:	0e 94 07 07 	call	0xe0e	; 0xe0e <DIO_SetPinDirection>
     604:	82 e0       	ldi	r24, 0x02	; 2
     606:	65 e0       	ldi	r22, 0x05	; 5
     608:	41 e0       	ldi	r20, 0x01	; 1
     60a:	0e 94 07 07 	call	0xe0e	; 0xe0e <DIO_SetPinDirection>
     60e:	82 e0       	ldi	r24, 0x02	; 2
     610:	66 e0       	ldi	r22, 0x06	; 6
     612:	41 e0       	ldi	r20, 0x01	; 1
     614:	0e 94 07 07 	call	0xe0e	; 0xe0e <DIO_SetPinDirection>
     618:	82 e0       	ldi	r24, 0x02	; 2
     61a:	67 e0       	ldi	r22, 0x07	; 7
     61c:	41 e0       	ldi	r20, 0x01	; 1
     61e:	0e 94 07 07 	call	0xe0e	; 0xe0e <DIO_SetPinDirection>
     622:	8f e7       	ldi	r24, 0x7F	; 127
     624:	95 eb       	ldi	r25, 0xB5	; 181
     626:	a1 e0       	ldi	r26, 0x01	; 1
     628:	81 50       	subi	r24, 0x01	; 1
     62a:	90 40       	sbci	r25, 0x00	; 0
     62c:	a0 40       	sbci	r26, 0x00	; 0
     62e:	e1 f7       	brne	.-8      	; 0x628 <LCD_init+0x4c>
     630:	00 c0       	rjmp	.+0      	; 0x632 <LCD_init+0x56>
     632:	00 00       	nop
     634:	81 e0       	ldi	r24, 0x01	; 1
     636:	61 e0       	ldi	r22, 0x01	; 1
     638:	40 e0       	ldi	r20, 0x00	; 0
     63a:	0e 94 9d 07 	call	0xf3a	; 0xf3a <DIO_SetPinValue>
     63e:	81 e0       	ldi	r24, 0x01	; 1
     640:	62 e0       	ldi	r22, 0x02	; 2
     642:	40 e0       	ldi	r20, 0x00	; 0
     644:	0e 94 9d 07 	call	0xf3a	; 0xf3a <DIO_SetPinValue>
     648:	82 e0       	ldi	r24, 0x02	; 2
     64a:	0e 94 78 02 	call	0x4f0	; 0x4f0 <private_WriteHalfPort>
     64e:	81 e0       	ldi	r24, 0x01	; 1
     650:	63 e0       	ldi	r22, 0x03	; 3
     652:	41 e0       	ldi	r20, 0x01	; 1
     654:	0e 94 9d 07 	call	0xf3a	; 0xf3a <DIO_SetPinValue>
     658:	af e9       	ldi	r26, 0x9F	; 159
     65a:	bf e0       	ldi	r27, 0x0F	; 15
     65c:	11 97       	sbiw	r26, 0x01	; 1
     65e:	f1 f7       	brne	.-4      	; 0x65c <LCD_init+0x80>
     660:	00 c0       	rjmp	.+0      	; 0x662 <LCD_init+0x86>
     662:	00 00       	nop
     664:	81 e0       	ldi	r24, 0x01	; 1
     666:	63 e0       	ldi	r22, 0x03	; 3
     668:	40 e0       	ldi	r20, 0x00	; 0
     66a:	0e 94 9d 07 	call	0xf3a	; 0xf3a <DIO_SetPinValue>
     66e:	88 e2       	ldi	r24, 0x28	; 40
     670:	0e 94 b8 02 	call	0x570	; 0x570 <LCD_sendComnd>
	#else
		//round up by default
		__ticks_dc = (uint32_t)(ceil(fabs(__tmp)));
	#endif

	__builtin_avr_delay_cycles(__ticks_dc);
     674:	b0 ef       	ldi	r27, 0xF0	; 240
     676:	ba 95       	dec	r27
     678:	f1 f7       	brne	.-4      	; 0x676 <LCD_init+0x9a>
     67a:	8c e0       	ldi	r24, 0x0C	; 12
     67c:	0e 94 b8 02 	call	0x570	; 0x570 <LCD_sendComnd>
     680:	80 ef       	ldi	r24, 0xF0	; 240
     682:	8a 95       	dec	r24
     684:	f1 f7       	brne	.-4      	; 0x682 <LCD_init+0xa6>
     686:	81 e0       	ldi	r24, 0x01	; 1
     688:	0e 94 b8 02 	call	0x570	; 0x570 <LCD_sendComnd>
	#else
		//round up by default
		__ticks_dc = (uint32_t)(ceil(fabs(__tmp)));
	#endif

	__builtin_avr_delay_cycles(__ticks_dc);
     68c:	af e3       	ldi	r26, 0x3F	; 63
     68e:	bf e1       	ldi	r27, 0x1F	; 31
     690:	11 97       	sbiw	r26, 0x01	; 1
     692:	f1 f7       	brne	.-4      	; 0x690 <LCD_init+0xb4>
     694:	00 c0       	rjmp	.+0      	; 0x696 <LCD_init+0xba>
     696:	00 00       	nop
     698:	86 e0       	ldi	r24, 0x06	; 6
     69a:	0e 94 b8 02 	call	0x570	; 0x570 <LCD_sendComnd>
	#else
		//round up by default
		__ticks_dc = (uint32_t)(ceil(fabs(__tmp)));
	#endif

	__builtin_avr_delay_cycles(__ticks_dc);
     69e:	b0 ef       	ldi	r27, 0xF0	; 240
     6a0:	ba 95       	dec	r27
     6a2:	f1 f7       	brne	.-4      	; 0x6a0 <LCD_init+0xc4>
     6a4:	08 95       	ret

000006a6 <LCD_sendChar>:
     6a6:	cf 93       	push	r28
     6a8:	c8 2f       	mov	r28, r24
     6aa:	81 e0       	ldi	r24, 0x01	; 1
     6ac:	61 e0       	ldi	r22, 0x01	; 1
     6ae:	41 e0       	ldi	r20, 0x01	; 1
     6b0:	0e 94 9d 07 	call	0xf3a	; 0xf3a <DIO_SetPinValue>
     6b4:	81 e0       	ldi	r24, 0x01	; 1
     6b6:	62 e0       	ldi	r22, 0x02	; 2
     6b8:	40 e0       	ldi	r20, 0x00	; 0
     6ba:	0e 94 9d 07 	call	0xf3a	; 0xf3a <DIO_SetPinValue>
     6be:	8c 2f       	mov	r24, r28
     6c0:	82 95       	swap	r24
     6c2:	8f 70       	andi	r24, 0x0F	; 15
     6c4:	0e 94 78 02 	call	0x4f0	; 0x4f0 <private_WriteHalfPort>
     6c8:	81 e0       	ldi	r24, 0x01	; 1
     6ca:	63 e0       	ldi	r22, 0x03	; 3
     6cc:	41 e0       	ldi	r20, 0x01	; 1
     6ce:	0e 94 9d 07 	call	0xf3a	; 0xf3a <DIO_SetPinValue>
	#else
		//round up by default
		__ticks_dc = (uint32_t)(ceil(fabs(__tmp)));
	#endif

	__builtin_avr_delay_cycles(__ticks_dc);
     6d2:	8f e9       	ldi	r24, 0x9F	; 159
     6d4:	9f e0       	ldi	r25, 0x0F	; 15
     6d6:	01 97       	sbiw	r24, 0x01	; 1
     6d8:	f1 f7       	brne	.-4      	; 0x6d6 <LCD_sendChar+0x30>
     6da:	00 c0       	rjmp	.+0      	; 0x6dc <LCD_sendChar+0x36>
     6dc:	00 00       	nop
     6de:	81 e0       	ldi	r24, 0x01	; 1
     6e0:	63 e0       	ldi	r22, 0x03	; 3
     6e2:	40 e0       	ldi	r20, 0x00	; 0
     6e4:	0e 94 9d 07 	call	0xf3a	; 0xf3a <DIO_SetPinValue>
     6e8:	8c 2f       	mov	r24, r28
     6ea:	0e 94 78 02 	call	0x4f0	; 0x4f0 <private_WriteHalfPort>
     6ee:	81 e0       	ldi	r24, 0x01	; 1
     6f0:	63 e0       	ldi	r22, 0x03	; 3
     6f2:	41 e0       	ldi	r20, 0x01	; 1
     6f4:	0e 94 9d 07 	call	0xf3a	; 0xf3a <DIO_SetPinValue>
     6f8:	8f e9       	ldi	r24, 0x9F	; 159
     6fa:	9f e0       	ldi	r25, 0x0F	; 15
     6fc:	01 97       	sbiw	r24, 0x01	; 1
     6fe:	f1 f7       	brne	.-4      	; 0x6fc <LCD_sendChar+0x56>
     700:	00 c0       	rjmp	.+0      	; 0x702 <LCD_sendChar+0x5c>
     702:	00 00       	nop
     704:	81 e0       	ldi	r24, 0x01	; 1
     706:	63 e0       	ldi	r22, 0x03	; 3
     708:	40 e0       	ldi	r20, 0x00	; 0
     70a:	0e 94 9d 07 	call	0xf3a	; 0xf3a <DIO_SetPinValue>
     70e:	cf 91       	pop	r28
     710:	08 95       	ret

00000712 <LCD_SendString>:
     712:	cf 93       	push	r28
     714:	df 93       	push	r29
     716:	ec 01       	movw	r28, r24
     718:	88 81       	ld	r24, Y
     71a:	88 23       	and	r24, r24
     71c:	31 f0       	breq	.+12     	; 0x72a <LCD_SendString+0x18>
     71e:	21 96       	adiw	r28, 0x01	; 1
     720:	0e 94 53 03 	call	0x6a6	; 0x6a6 <LCD_sendChar>
     724:	89 91       	ld	r24, Y+
     726:	88 23       	and	r24, r24
     728:	d9 f7       	brne	.-10     	; 0x720 <LCD_SendString+0xe>
     72a:	df 91       	pop	r29
     72c:	cf 91       	pop	r28
     72e:	08 95       	ret

00000730 <LCD_SendRealNumber>:
     730:	8f 92       	push	r8
     732:	9f 92       	push	r9
     734:	af 92       	push	r10
     736:	bf 92       	push	r11
     738:	cf 92       	push	r12
     73a:	df 92       	push	r13
     73c:	ef 92       	push	r14
     73e:	ff 92       	push	r15
     740:	0f 93       	push	r16
     742:	1f 93       	push	r17
     744:	cf 93       	push	r28
     746:	df 93       	push	r29
     748:	cd b7       	in	r28, 0x3d	; 61
     74a:	de b7       	in	r29, 0x3e	; 62
     74c:	60 97       	sbiw	r28, 0x10	; 16
     74e:	0f b6       	in	r0, 0x3f	; 63
     750:	f8 94       	cli
     752:	de bf       	out	0x3e, r29	; 62
     754:	0f be       	out	0x3f, r0	; 63
     756:	cd bf       	out	0x3d, r28	; 61
     758:	6b 01       	movw	r12, r22
     75a:	7c 01       	movw	r14, r24
     75c:	20 e0       	ldi	r18, 0x00	; 0
     75e:	30 e0       	ldi	r19, 0x00	; 0
     760:	a9 01       	movw	r20, r18
     762:	0e 94 c4 0d 	call	0x1b88	; 0x1b88 <__cmpsf2>
     766:	88 23       	and	r24, r24
     768:	5c f4       	brge	.+22     	; 0x780 <LCD_SendRealNumber+0x50>
     76a:	f7 fa       	bst	r15, 7
     76c:	f0 94       	com	r15
     76e:	f7 f8       	bld	r15, 7
     770:	f0 94       	com	r15
     772:	0f 2e       	mov	r0, r31
     774:	f2 e6       	ldi	r31, 0x62	; 98
     776:	8f 2e       	mov	r8, r31
     778:	f0 e0       	ldi	r31, 0x00	; 0
     77a:	9f 2e       	mov	r9, r31
     77c:	f0 2d       	mov	r31, r0
     77e:	06 c0       	rjmp	.+12     	; 0x78c <LCD_SendRealNumber+0x5c>
     780:	0f 2e       	mov	r0, r31
     782:	f4 e6       	ldi	r31, 0x64	; 100
     784:	8f 2e       	mov	r8, r31
     786:	f0 e0       	ldi	r31, 0x00	; 0
     788:	9f 2e       	mov	r9, r31
     78a:	f0 2d       	mov	r31, r0
     78c:	c7 01       	movw	r24, r14
     78e:	b6 01       	movw	r22, r12
     790:	0e 94 30 0e 	call	0x1c60	; 0x1c60 <__fixunssfsi>
     794:	dc 01       	movw	r26, r24
     796:	cb 01       	movw	r24, r22
     798:	2d b7       	in	r18, 0x3d	; 61
     79a:	3e b7       	in	r19, 0x3e	; 62
     79c:	2a 50       	subi	r18, 0x0A	; 10
     79e:	30 40       	sbci	r19, 0x00	; 0
     7a0:	0f b6       	in	r0, 0x3f	; 63
     7a2:	f8 94       	cli
     7a4:	3e bf       	out	0x3e, r19	; 62
     7a6:	0f be       	out	0x3f, r0	; 63
     7a8:	2d bf       	out	0x3d, r18	; 61
     7aa:	0d b7       	in	r16, 0x3d	; 61
     7ac:	1e b7       	in	r17, 0x3e	; 62
     7ae:	0f 5f       	subi	r16, 0xFF	; 255
     7b0:	1f 4f       	sbci	r17, 0xFF	; 255
     7b2:	5e 01       	movw	r10, r28
     7b4:	08 94       	sec
     7b6:	a1 1c       	adc	r10, r1
     7b8:	b1 1c       	adc	r11, r1
     7ba:	ed b7       	in	r30, 0x3d	; 61
     7bc:	fe b7       	in	r31, 0x3e	; 62
     7be:	b2 82       	std	Z+2, r11	; 0x02
     7c0:	a1 82       	std	Z+1, r10	; 0x01
     7c2:	25 e6       	ldi	r18, 0x65	; 101
     7c4:	30 e0       	ldi	r19, 0x00	; 0
     7c6:	f8 01       	movw	r30, r16
     7c8:	33 83       	std	Z+3, r19	; 0x03
     7ca:	22 83       	std	Z+2, r18	; 0x02
     7cc:	95 82       	std	Z+5, r9	; 0x05
     7ce:	84 82       	std	Z+4, r8	; 0x04
     7d0:	97 83       	std	Z+7, r25	; 0x07
     7d2:	86 83       	std	Z+6, r24	; 0x06
     7d4:	bc 01       	movw	r22, r24
     7d6:	80 e0       	ldi	r24, 0x00	; 0
     7d8:	90 e0       	ldi	r25, 0x00	; 0
     7da:	0e 94 5c 0e 	call	0x1cb8	; 0x1cb8 <__floatunsisf>
     7de:	9b 01       	movw	r18, r22
     7e0:	ac 01       	movw	r20, r24
     7e2:	c7 01       	movw	r24, r14
     7e4:	b6 01       	movw	r22, r12
     7e6:	0e 94 5f 0d 	call	0x1abe	; 0x1abe <__subsf3>
     7ea:	20 e0       	ldi	r18, 0x00	; 0
     7ec:	30 e4       	ldi	r19, 0x40	; 64
     7ee:	4c e1       	ldi	r20, 0x1C	; 28
     7f0:	56 e4       	ldi	r21, 0x46	; 70
     7f2:	0e 94 12 0f 	call	0x1e24	; 0x1e24 <__mulsf3>
     7f6:	0e 94 30 0e 	call	0x1c60	; 0x1c60 <__fixunssfsi>
     7fa:	dc 01       	movw	r26, r24
     7fc:	cb 01       	movw	r24, r22
     7fe:	f8 01       	movw	r30, r16
     800:	91 87       	std	Z+9, r25	; 0x09
     802:	80 87       	std	Z+8, r24	; 0x08
     804:	0e 94 24 11 	call	0x2248	; 0x2248 <sprintf>
     808:	2d b7       	in	r18, 0x3d	; 61
     80a:	3e b7       	in	r19, 0x3e	; 62
     80c:	26 5f       	subi	r18, 0xF6	; 246
     80e:	3f 4f       	sbci	r19, 0xFF	; 255
     810:	0f b6       	in	r0, 0x3f	; 63
     812:	f8 94       	cli
     814:	3e bf       	out	0x3e, r19	; 62
     816:	0f be       	out	0x3f, r0	; 63
     818:	2d bf       	out	0x3d, r18	; 61
     81a:	c5 01       	movw	r24, r10
     81c:	0e 94 89 03 	call	0x712	; 0x712 <LCD_SendString>
     820:	60 96       	adiw	r28, 0x10	; 16
     822:	0f b6       	in	r0, 0x3f	; 63
     824:	f8 94       	cli
     826:	de bf       	out	0x3e, r29	; 62
     828:	0f be       	out	0x3f, r0	; 63
     82a:	cd bf       	out	0x3d, r28	; 61
     82c:	df 91       	pop	r29
     82e:	cf 91       	pop	r28
     830:	1f 91       	pop	r17
     832:	0f 91       	pop	r16
     834:	ff 90       	pop	r15
     836:	ef 90       	pop	r14
     838:	df 90       	pop	r13
     83a:	cf 90       	pop	r12
     83c:	bf 90       	pop	r11
     83e:	af 90       	pop	r10
     840:	9f 90       	pop	r9
     842:	8f 90       	pop	r8
     844:	08 95       	ret

00000846 <LCD_ClearDesplay>:
     846:	81 e0       	ldi	r24, 0x01	; 1
     848:	0e 94 b8 02 	call	0x570	; 0x570 <LCD_sendComnd>
     84c:	8f e3       	ldi	r24, 0x3F	; 63
     84e:	9f e1       	ldi	r25, 0x1F	; 31
     850:	01 97       	sbiw	r24, 0x01	; 1
     852:	f1 f7       	brne	.-4      	; 0x850 <LCD_ClearDesplay+0xa>
     854:	00 c0       	rjmp	.+0      	; 0x856 <LCD_ClearDesplay+0x10>
     856:	00 00       	nop
     858:	80 e8       	ldi	r24, 0x80	; 128
     85a:	0e 94 b8 02 	call	0x570	; 0x570 <LCD_sendComnd>
     85e:	08 95       	ret

00000860 <LCD_GoToLocation>:
     860:	cf 93       	push	r28
     862:	df 93       	push	r29
     864:	00 d0       	rcall	.+0      	; 0x866 <LCD_GoToLocation+0x6>
     866:	00 d0       	rcall	.+0      	; 0x868 <LCD_GoToLocation+0x8>
     868:	cd b7       	in	r28, 0x3d	; 61
     86a:	de b7       	in	r29, 0x3e	; 62
     86c:	90 e8       	ldi	r25, 0x80	; 128
     86e:	99 83       	std	Y+1, r25	; 0x01
     870:	90 ec       	ldi	r25, 0xC0	; 192
     872:	9a 83       	std	Y+2, r25	; 0x02
     874:	94 e9       	ldi	r25, 0x94	; 148
     876:	9b 83       	std	Y+3, r25	; 0x03
     878:	94 ed       	ldi	r25, 0xD4	; 212
     87a:	9c 83       	std	Y+4, r25	; 0x04
     87c:	81 50       	subi	r24, 0x01	; 1
     87e:	fe 01       	movw	r30, r28
     880:	e6 0f       	add	r30, r22
     882:	f1 1d       	adc	r31, r1
     884:	90 81       	ld	r25, Z
     886:	89 0f       	add	r24, r25
     888:	0e 94 b8 02 	call	0x570	; 0x570 <LCD_sendComnd>
	#else
		//round up by default
		__ticks_dc = (uint32_t)(ceil(fabs(__tmp)));
	#endif

	__builtin_avr_delay_cycles(__ticks_dc);
     88c:	8f e9       	ldi	r24, 0x9F	; 159
     88e:	9f e0       	ldi	r25, 0x0F	; 15
     890:	01 97       	sbiw	r24, 0x01	; 1
     892:	f1 f7       	brne	.-4      	; 0x890 <LCD_GoToLocation+0x30>
     894:	00 c0       	rjmp	.+0      	; 0x896 <LCD_GoToLocation+0x36>
     896:	00 00       	nop
     898:	0f 90       	pop	r0
     89a:	0f 90       	pop	r0
     89c:	0f 90       	pop	r0
     89e:	0f 90       	pop	r0
     8a0:	df 91       	pop	r29
     8a2:	cf 91       	pop	r28
     8a4:	08 95       	ret

000008a6 <LCD_SendIntegarNumber>:
     8a6:	0f 93       	push	r16
     8a8:	1f 93       	push	r17
     8aa:	cf 93       	push	r28
     8ac:	df 93       	push	r29
     8ae:	cd b7       	in	r28, 0x3d	; 61
     8b0:	de b7       	in	r29, 0x3e	; 62
     8b2:	a0 97       	sbiw	r28, 0x20	; 32
     8b4:	0f b6       	in	r0, 0x3f	; 63
     8b6:	f8 94       	cli
     8b8:	de bf       	out	0x3e, r29	; 62
     8ba:	0f be       	out	0x3f, r0	; 63
     8bc:	cd bf       	out	0x3d, r28	; 61
     8be:	2d b7       	in	r18, 0x3d	; 61
     8c0:	3e b7       	in	r19, 0x3e	; 62
     8c2:	28 50       	subi	r18, 0x08	; 8
     8c4:	30 40       	sbci	r19, 0x00	; 0
     8c6:	0f b6       	in	r0, 0x3f	; 63
     8c8:	f8 94       	cli
     8ca:	3e bf       	out	0x3e, r19	; 62
     8cc:	0f be       	out	0x3f, r0	; 63
     8ce:	2d bf       	out	0x3d, r18	; 61
     8d0:	ed b7       	in	r30, 0x3d	; 61
     8d2:	fe b7       	in	r31, 0x3e	; 62
     8d4:	31 96       	adiw	r30, 0x01	; 1
     8d6:	8e 01       	movw	r16, r28
     8d8:	0f 5f       	subi	r16, 0xFF	; 255
     8da:	1f 4f       	sbci	r17, 0xFF	; 255
     8dc:	ad b7       	in	r26, 0x3d	; 61
     8de:	be b7       	in	r27, 0x3e	; 62
     8e0:	12 96       	adiw	r26, 0x02	; 2
     8e2:	1c 93       	st	X, r17
     8e4:	0e 93       	st	-X, r16
     8e6:	11 97       	sbiw	r26, 0x01	; 1
     8e8:	21 e1       	ldi	r18, 0x11	; 17
     8ea:	30 e0       	ldi	r19, 0x00	; 0
     8ec:	33 83       	std	Z+3, r19	; 0x03
     8ee:	22 83       	std	Z+2, r18	; 0x02
     8f0:	2f e6       	ldi	r18, 0x6F	; 111
     8f2:	30 e0       	ldi	r19, 0x00	; 0
     8f4:	35 83       	std	Z+5, r19	; 0x05
     8f6:	24 83       	std	Z+4, r18	; 0x04
     8f8:	97 83       	std	Z+7, r25	; 0x07
     8fa:	86 83       	std	Z+6, r24	; 0x06
     8fc:	0e 94 f4 10 	call	0x21e8	; 0x21e8 <snprintf>
     900:	2d b7       	in	r18, 0x3d	; 61
     902:	3e b7       	in	r19, 0x3e	; 62
     904:	28 5f       	subi	r18, 0xF8	; 248
     906:	3f 4f       	sbci	r19, 0xFF	; 255
     908:	0f b6       	in	r0, 0x3f	; 63
     90a:	f8 94       	cli
     90c:	3e bf       	out	0x3e, r19	; 62
     90e:	0f be       	out	0x3f, r0	; 63
     910:	2d bf       	out	0x3d, r18	; 61
     912:	c8 01       	movw	r24, r16
     914:	0e 94 89 03 	call	0x712	; 0x712 <LCD_SendString>
     918:	a0 96       	adiw	r28, 0x20	; 32
     91a:	0f b6       	in	r0, 0x3f	; 63
     91c:	f8 94       	cli
     91e:	de bf       	out	0x3e, r29	; 62
     920:	0f be       	out	0x3f, r0	; 63
     922:	cd bf       	out	0x3d, r28	; 61
     924:	df 91       	pop	r29
     926:	cf 91       	pop	r28
     928:	1f 91       	pop	r17
     92a:	0f 91       	pop	r16
     92c:	08 95       	ret

0000092e <LCD_SendNumberToLocation>:
     92e:	cf 93       	push	r28
     930:	df 93       	push	r29
     932:	ec 01       	movw	r28, r24
     934:	86 2f       	mov	r24, r22
     936:	64 2f       	mov	r22, r20
     938:	0e 94 30 04 	call	0x860	; 0x860 <LCD_GoToLocation>
     93c:	ce 01       	movw	r24, r28
     93e:	0e 94 53 04 	call	0x8a6	; 0x8a6 <LCD_SendIntegarNumber>
     942:	df 91       	pop	r29
     944:	cf 91       	pop	r28
     946:	08 95       	ret

00000948 <LCD_Shift>:
     948:	0e 94 b8 02 	call	0x570	; 0x570 <LCD_sendComnd>
     94c:	08 95       	ret

0000094e <LED_init>:
#include "../include/LED_config.h"


void LED_init(u8 LedPort,u8 LedPin)
{
	if (LedPort <=3 && LedPin<=7)
     94e:	84 30       	cpi	r24, 0x04	; 4
     950:	28 f4       	brcc	.+10     	; 0x95c <LED_init+0xe>
     952:	68 30       	cpi	r22, 0x08	; 8
     954:	18 f4       	brcc	.+6      	; 0x95c <LED_init+0xe>
	{
		DIO_SetPinDirection(LedPort,LedPin,DIO_PIN_OUTPUT);
     956:	41 e0       	ldi	r20, 0x01	; 1
     958:	0e 94 07 07 	call	0xe0e	; 0xe0e <DIO_SetPinDirection>
     95c:	08 95       	ret

0000095e <LED_TurnON>:
}


void LED_TurnON(u8 LedPort,u8 LedPin)
{
	if (LedPort <=3 && LedPin<=7)
     95e:	84 30       	cpi	r24, 0x04	; 4
     960:	28 f4       	brcc	.+10     	; 0x96c <LED_TurnON+0xe>
     962:	68 30       	cpi	r22, 0x08	; 8
     964:	18 f4       	brcc	.+6      	; 0x96c <LED_TurnON+0xe>
	{
		DIO_SetPinValue(LedPort,LedPin,DIO_PIN_HIGH);
     966:	41 e0       	ldi	r20, 0x01	; 1
     968:	0e 94 9d 07 	call	0xf3a	; 0xf3a <DIO_SetPinValue>
     96c:	08 95       	ret

0000096e <LED_TurnOFF>:
}


void LED_TurnOFF(u8 LedPort,u8 LedPin)
{
	if (LedPort <=3 && LedPin<=7)
     96e:	84 30       	cpi	r24, 0x04	; 4
     970:	28 f4       	brcc	.+10     	; 0x97c <LED_TurnOFF+0xe>
     972:	68 30       	cpi	r22, 0x08	; 8
     974:	18 f4       	brcc	.+6      	; 0x97c <LED_TurnOFF+0xe>
	{
		DIO_SetPinValue(LedPort,LedPin,DIO_PIN_LOW);
     976:	40 e0       	ldi	r20, 0x00	; 0
     978:	0e 94 9d 07 	call	0xf3a	; 0xf3a <DIO_SetPinValue>
     97c:	08 95       	ret

0000097e <LED_Toggle>:
}


void LED_Toggle(u8 LedPort,u8 LedPin)
{
	 if (LedPort <=3 && LedPin<=7)
     97e:	84 30       	cpi	r24, 0x04	; 4
     980:	20 f4       	brcc	.+8      	; 0x98a <LED_Toggle+0xc>
     982:	68 30       	cpi	r22, 0x08	; 8
     984:	10 f4       	brcc	.+4      	; 0x98a <LED_Toggle+0xc>
	 {
		DIO_TogglePinValue(LedPort,LedPin);
     986:	0e 94 33 08 	call	0x1066	; 0x1066 <DIO_TogglePinValue>
     98a:	08 95       	ret

0000098c <WHEEL_Init>:
     98c:	81 e0       	ldi	r24, 0x01	; 1
     98e:	64 e0       	ldi	r22, 0x04	; 4
     990:	41 e0       	ldi	r20, 0x01	; 1
     992:	0e 94 07 07 	call	0xe0e	; 0xe0e <DIO_SetPinDirection>
     996:	81 e0       	ldi	r24, 0x01	; 1
     998:	65 e0       	ldi	r22, 0x05	; 5
     99a:	41 e0       	ldi	r20, 0x01	; 1
     99c:	0e 94 07 07 	call	0xe0e	; 0xe0e <DIO_SetPinDirection>
     9a0:	81 e0       	ldi	r24, 0x01	; 1
     9a2:	66 e0       	ldi	r22, 0x06	; 6
     9a4:	41 e0       	ldi	r20, 0x01	; 1
     9a6:	0e 94 07 07 	call	0xe0e	; 0xe0e <DIO_SetPinDirection>
     9aa:	81 e0       	ldi	r24, 0x01	; 1
     9ac:	67 e0       	ldi	r22, 0x07	; 7
     9ae:	41 e0       	ldi	r20, 0x01	; 1
     9b0:	0e 94 07 07 	call	0xe0e	; 0xe0e <DIO_SetPinDirection>
     9b4:	83 e0       	ldi	r24, 0x03	; 3
     9b6:	67 e0       	ldi	r22, 0x07	; 7
     9b8:	41 e0       	ldi	r20, 0x01	; 1
     9ba:	0e 94 07 07 	call	0xe0e	; 0xe0e <DIO_SetPinDirection>
     9be:	81 e0       	ldi	r24, 0x01	; 1
     9c0:	64 e0       	ldi	r22, 0x04	; 4
     9c2:	40 e0       	ldi	r20, 0x00	; 0
     9c4:	0e 94 9d 07 	call	0xf3a	; 0xf3a <DIO_SetPinValue>
     9c8:	81 e0       	ldi	r24, 0x01	; 1
     9ca:	65 e0       	ldi	r22, 0x05	; 5
     9cc:	40 e0       	ldi	r20, 0x00	; 0
     9ce:	0e 94 9d 07 	call	0xf3a	; 0xf3a <DIO_SetPinValue>
     9d2:	81 e0       	ldi	r24, 0x01	; 1
     9d4:	66 e0       	ldi	r22, 0x06	; 6
     9d6:	40 e0       	ldi	r20, 0x00	; 0
     9d8:	0e 94 9d 07 	call	0xf3a	; 0xf3a <DIO_SetPinValue>
     9dc:	81 e0       	ldi	r24, 0x01	; 1
     9de:	67 e0       	ldi	r22, 0x07	; 7
     9e0:	40 e0       	ldi	r20, 0x00	; 0
     9e2:	0e 94 9d 07 	call	0xf3a	; 0xf3a <DIO_SetPinValue>
     9e6:	08 95       	ret

000009e8 <WHEEL_MoveForward>:
     9e8:	83 e0       	ldi	r24, 0x03	; 3
     9ea:	67 e0       	ldi	r22, 0x07	; 7
     9ec:	41 e0       	ldi	r20, 0x01	; 1
     9ee:	0e 94 9d 07 	call	0xf3a	; 0xf3a <DIO_SetPinValue>
     9f2:	81 e0       	ldi	r24, 0x01	; 1
     9f4:	64 e0       	ldi	r22, 0x04	; 4
     9f6:	40 e0       	ldi	r20, 0x00	; 0
     9f8:	0e 94 9d 07 	call	0xf3a	; 0xf3a <DIO_SetPinValue>
     9fc:	81 e0       	ldi	r24, 0x01	; 1
     9fe:	65 e0       	ldi	r22, 0x05	; 5
     a00:	41 e0       	ldi	r20, 0x01	; 1
     a02:	0e 94 9d 07 	call	0xf3a	; 0xf3a <DIO_SetPinValue>
     a06:	81 e0       	ldi	r24, 0x01	; 1
     a08:	66 e0       	ldi	r22, 0x06	; 6
     a0a:	40 e0       	ldi	r20, 0x00	; 0
     a0c:	0e 94 9d 07 	call	0xf3a	; 0xf3a <DIO_SetPinValue>
     a10:	81 e0       	ldi	r24, 0x01	; 1
     a12:	67 e0       	ldi	r22, 0x07	; 7
     a14:	41 e0       	ldi	r20, 0x01	; 1
     a16:	0e 94 9d 07 	call	0xf3a	; 0xf3a <DIO_SetPinValue>
     a1a:	08 95       	ret

00000a1c <WHEEL_MoveBackward>:
     a1c:	83 e0       	ldi	r24, 0x03	; 3
     a1e:	67 e0       	ldi	r22, 0x07	; 7
     a20:	41 e0       	ldi	r20, 0x01	; 1
     a22:	0e 94 9d 07 	call	0xf3a	; 0xf3a <DIO_SetPinValue>
     a26:	81 e0       	ldi	r24, 0x01	; 1
     a28:	64 e0       	ldi	r22, 0x04	; 4
     a2a:	41 e0       	ldi	r20, 0x01	; 1
     a2c:	0e 94 9d 07 	call	0xf3a	; 0xf3a <DIO_SetPinValue>
     a30:	81 e0       	ldi	r24, 0x01	; 1
     a32:	65 e0       	ldi	r22, 0x05	; 5
     a34:	40 e0       	ldi	r20, 0x00	; 0
     a36:	0e 94 9d 07 	call	0xf3a	; 0xf3a <DIO_SetPinValue>
     a3a:	81 e0       	ldi	r24, 0x01	; 1
     a3c:	66 e0       	ldi	r22, 0x06	; 6
     a3e:	41 e0       	ldi	r20, 0x01	; 1
     a40:	0e 94 9d 07 	call	0xf3a	; 0xf3a <DIO_SetPinValue>
     a44:	81 e0       	ldi	r24, 0x01	; 1
     a46:	67 e0       	ldi	r22, 0x07	; 7
     a48:	40 e0       	ldi	r20, 0x00	; 0
     a4a:	0e 94 9d 07 	call	0xf3a	; 0xf3a <DIO_SetPinValue>
     a4e:	08 95       	ret

00000a50 <WHEEL_Stop>:
     a50:	83 e0       	ldi	r24, 0x03	; 3
     a52:	67 e0       	ldi	r22, 0x07	; 7
     a54:	41 e0       	ldi	r20, 0x01	; 1
     a56:	0e 94 9d 07 	call	0xf3a	; 0xf3a <DIO_SetPinValue>
     a5a:	81 e0       	ldi	r24, 0x01	; 1
     a5c:	64 e0       	ldi	r22, 0x04	; 4
     a5e:	40 e0       	ldi	r20, 0x00	; 0
     a60:	0e 94 9d 07 	call	0xf3a	; 0xf3a <DIO_SetPinValue>
     a64:	81 e0       	ldi	r24, 0x01	; 1
     a66:	65 e0       	ldi	r22, 0x05	; 5
     a68:	40 e0       	ldi	r20, 0x00	; 0
     a6a:	0e 94 9d 07 	call	0xf3a	; 0xf3a <DIO_SetPinValue>
     a6e:	81 e0       	ldi	r24, 0x01	; 1
     a70:	66 e0       	ldi	r22, 0x06	; 6
     a72:	40 e0       	ldi	r20, 0x00	; 0
     a74:	0e 94 9d 07 	call	0xf3a	; 0xf3a <DIO_SetPinValue>
     a78:	81 e0       	ldi	r24, 0x01	; 1
     a7a:	67 e0       	ldi	r22, 0x07	; 7
     a7c:	40 e0       	ldi	r20, 0x00	; 0
     a7e:	0e 94 9d 07 	call	0xf3a	; 0xf3a <DIO_SetPinValue>
     a82:	08 95       	ret

00000a84 <WHEEL_MoveForwardRight>:
     a84:	83 e0       	ldi	r24, 0x03	; 3
     a86:	67 e0       	ldi	r22, 0x07	; 7
     a88:	41 e0       	ldi	r20, 0x01	; 1
     a8a:	0e 94 9d 07 	call	0xf3a	; 0xf3a <DIO_SetPinValue>
     a8e:	81 e0       	ldi	r24, 0x01	; 1
     a90:	64 e0       	ldi	r22, 0x04	; 4
     a92:	40 e0       	ldi	r20, 0x00	; 0
     a94:	0e 94 9d 07 	call	0xf3a	; 0xf3a <DIO_SetPinValue>
     a98:	81 e0       	ldi	r24, 0x01	; 1
     a9a:	65 e0       	ldi	r22, 0x05	; 5
     a9c:	41 e0       	ldi	r20, 0x01	; 1
     a9e:	0e 94 9d 07 	call	0xf3a	; 0xf3a <DIO_SetPinValue>
     aa2:	81 e0       	ldi	r24, 0x01	; 1
     aa4:	66 e0       	ldi	r22, 0x06	; 6
     aa6:	40 e0       	ldi	r20, 0x00	; 0
     aa8:	0e 94 9d 07 	call	0xf3a	; 0xf3a <DIO_SetPinValue>
     aac:	81 e0       	ldi	r24, 0x01	; 1
     aae:	67 e0       	ldi	r22, 0x07	; 7
     ab0:	40 e0       	ldi	r20, 0x00	; 0
     ab2:	0e 94 9d 07 	call	0xf3a	; 0xf3a <DIO_SetPinValue>
     ab6:	08 95       	ret

00000ab8 <WHEEL_MoveForwardleft>:
     ab8:	83 e0       	ldi	r24, 0x03	; 3
     aba:	67 e0       	ldi	r22, 0x07	; 7
     abc:	41 e0       	ldi	r20, 0x01	; 1
     abe:	0e 94 9d 07 	call	0xf3a	; 0xf3a <DIO_SetPinValue>
     ac2:	81 e0       	ldi	r24, 0x01	; 1
     ac4:	64 e0       	ldi	r22, 0x04	; 4
     ac6:	40 e0       	ldi	r20, 0x00	; 0
     ac8:	0e 94 9d 07 	call	0xf3a	; 0xf3a <DIO_SetPinValue>
     acc:	81 e0       	ldi	r24, 0x01	; 1
     ace:	65 e0       	ldi	r22, 0x05	; 5
     ad0:	40 e0       	ldi	r20, 0x00	; 0
     ad2:	0e 94 9d 07 	call	0xf3a	; 0xf3a <DIO_SetPinValue>
     ad6:	81 e0       	ldi	r24, 0x01	; 1
     ad8:	66 e0       	ldi	r22, 0x06	; 6
     ada:	40 e0       	ldi	r20, 0x00	; 0
     adc:	0e 94 9d 07 	call	0xf3a	; 0xf3a <DIO_SetPinValue>
     ae0:	81 e0       	ldi	r24, 0x01	; 1
     ae2:	67 e0       	ldi	r22, 0x07	; 7
     ae4:	41 e0       	ldi	r20, 0x01	; 1
     ae6:	0e 94 9d 07 	call	0xf3a	; 0xf3a <DIO_SetPinValue>
     aea:	08 95       	ret

00000aec <WHEEL_MoveBackwardleft>:
     aec:	83 e0       	ldi	r24, 0x03	; 3
     aee:	67 e0       	ldi	r22, 0x07	; 7
     af0:	41 e0       	ldi	r20, 0x01	; 1
     af2:	0e 94 9d 07 	call	0xf3a	; 0xf3a <DIO_SetPinValue>
     af6:	81 e0       	ldi	r24, 0x01	; 1
     af8:	64 e0       	ldi	r22, 0x04	; 4
     afa:	40 e0       	ldi	r20, 0x00	; 0
     afc:	0e 94 9d 07 	call	0xf3a	; 0xf3a <DIO_SetPinValue>
     b00:	81 e0       	ldi	r24, 0x01	; 1
     b02:	65 e0       	ldi	r22, 0x05	; 5
     b04:	40 e0       	ldi	r20, 0x00	; 0
     b06:	0e 94 9d 07 	call	0xf3a	; 0xf3a <DIO_SetPinValue>
     b0a:	81 e0       	ldi	r24, 0x01	; 1
     b0c:	66 e0       	ldi	r22, 0x06	; 6
     b0e:	41 e0       	ldi	r20, 0x01	; 1
     b10:	0e 94 9d 07 	call	0xf3a	; 0xf3a <DIO_SetPinValue>
     b14:	81 e0       	ldi	r24, 0x01	; 1
     b16:	67 e0       	ldi	r22, 0x07	; 7
     b18:	40 e0       	ldi	r20, 0x00	; 0
     b1a:	0e 94 9d 07 	call	0xf3a	; 0xf3a <DIO_SetPinValue>
     b1e:	08 95       	ret

00000b20 <WHEEL_MoveBackwardRight>:
     b20:	83 e0       	ldi	r24, 0x03	; 3
     b22:	67 e0       	ldi	r22, 0x07	; 7
     b24:	41 e0       	ldi	r20, 0x01	; 1
     b26:	0e 94 9d 07 	call	0xf3a	; 0xf3a <DIO_SetPinValue>
     b2a:	81 e0       	ldi	r24, 0x01	; 1
     b2c:	64 e0       	ldi	r22, 0x04	; 4
     b2e:	41 e0       	ldi	r20, 0x01	; 1
     b30:	0e 94 9d 07 	call	0xf3a	; 0xf3a <DIO_SetPinValue>
     b34:	81 e0       	ldi	r24, 0x01	; 1
     b36:	65 e0       	ldi	r22, 0x05	; 5
     b38:	40 e0       	ldi	r20, 0x00	; 0
     b3a:	0e 94 9d 07 	call	0xf3a	; 0xf3a <DIO_SetPinValue>
     b3e:	81 e0       	ldi	r24, 0x01	; 1
     b40:	66 e0       	ldi	r22, 0x06	; 6
     b42:	40 e0       	ldi	r20, 0x00	; 0
     b44:	0e 94 9d 07 	call	0xf3a	; 0xf3a <DIO_SetPinValue>
     b48:	81 e0       	ldi	r24, 0x01	; 1
     b4a:	67 e0       	ldi	r22, 0x07	; 7
     b4c:	40 e0       	ldi	r20, 0x00	; 0
     b4e:	0e 94 9d 07 	call	0xf3a	; 0xf3a <DIO_SetPinValue>
     b52:	08 95       	ret

00000b54 <WHEEL_TurnDirection>:
     b54:	08 95       	ret

00000b56 <WHEEL_SendDutyCycleAndStart>:
     b56:	cf 93       	push	r28
     b58:	c8 2f       	mov	r28, r24
     b5a:	0e 94 c6 0b 	call	0x178c	; 0x178c <TMR2_init>
     b5e:	6c 2f       	mov	r22, r28
     b60:	70 e0       	ldi	r23, 0x00	; 0
     b62:	80 e0       	ldi	r24, 0x00	; 0
     b64:	90 e0       	ldi	r25, 0x00	; 0
     b66:	0e 94 5c 0e 	call	0x1cb8	; 0x1cb8 <__floatunsisf>
     b6a:	0e 94 ee 0b 	call	0x17dc	; 0x17dc <TMR2_SetDutyCycleValue_FastPWM>
     b6e:	0e 94 d3 0b 	call	0x17a6	; 0x17a6 <TMR2_Start>
     b72:	cf 91       	pop	r28
     b74:	08 95       	ret

00000b76 <WHEEL_AdjustSpeed>:
     b76:	cf 93       	push	r28
     b78:	df 93       	push	r29
     b7a:	81 e0       	ldi	r24, 0x01	; 1
     b7c:	64 e0       	ldi	r22, 0x04	; 4
     b7e:	c0 e0       	ldi	r28, 0x00	; 0
     b80:	d0 e0       	ldi	r29, 0x00	; 0
     b82:	ae 01       	movw	r20, r28
     b84:	0e 94 81 08 	call	0x1102	; 0x1102 <DIO_ReadValue>
     b88:	88 81       	ld	r24, Y
     b8a:	81 30       	cpi	r24, 0x01	; 1
     b8c:	81 f4       	brne	.+32     	; 0xbae <WHEEL_AdjustSpeed+0x38>
	#else
		//round up by default
		__ticks_dc = (uint32_t)(ceil(fabs(__tmp)));
	#endif

	__builtin_avr_delay_cycles(__ticks_dc);
     b8e:	8f ef       	ldi	r24, 0xFF	; 255
     b90:	96 e1       	ldi	r25, 0x16	; 22
     b92:	a1 e1       	ldi	r26, 0x11	; 17
     b94:	81 50       	subi	r24, 0x01	; 1
     b96:	90 40       	sbci	r25, 0x00	; 0
     b98:	a0 40       	sbci	r26, 0x00	; 0
     b9a:	e1 f7       	brne	.-8      	; 0xb94 <WHEEL_AdjustSpeed+0x1e>
     b9c:	00 c0       	rjmp	.+0      	; 0xb9e <WHEEL_AdjustSpeed+0x28>
     b9e:	00 00       	nop
     ba0:	80 91 86 00 	lds	r24, 0x0086
     ba4:	8b 35       	cpi	r24, 0x5B	; 91
     ba6:	18 f0       	brcs	.+6      	; 0xbae <WHEEL_AdjustSpeed+0x38>
     ba8:	86 5f       	subi	r24, 0xF6	; 246
     baa:	80 93 86 00 	sts	0x0086, r24
     bae:	81 e0       	ldi	r24, 0x01	; 1
     bb0:	65 e0       	ldi	r22, 0x05	; 5
     bb2:	c0 e0       	ldi	r28, 0x00	; 0
     bb4:	d0 e0       	ldi	r29, 0x00	; 0
     bb6:	ae 01       	movw	r20, r28
     bb8:	0e 94 81 08 	call	0x1102	; 0x1102 <DIO_ReadValue>
     bbc:	88 81       	ld	r24, Y
     bbe:	81 30       	cpi	r24, 0x01	; 1
     bc0:	81 f4       	brne	.+32     	; 0xbe2 <WHEEL_AdjustSpeed+0x6c>
     bc2:	8f ef       	ldi	r24, 0xFF	; 255
     bc4:	96 e1       	ldi	r25, 0x16	; 22
     bc6:	a1 e1       	ldi	r26, 0x11	; 17
     bc8:	81 50       	subi	r24, 0x01	; 1
     bca:	90 40       	sbci	r25, 0x00	; 0
     bcc:	a0 40       	sbci	r26, 0x00	; 0
     bce:	e1 f7       	brne	.-8      	; 0xbc8 <WHEEL_AdjustSpeed+0x52>
     bd0:	00 c0       	rjmp	.+0      	; 0xbd2 <WHEEL_AdjustSpeed+0x5c>
     bd2:	00 00       	nop
     bd4:	80 91 86 00 	lds	r24, 0x0086
     bd8:	8b 30       	cpi	r24, 0x0B	; 11
     bda:	18 f0       	brcs	.+6      	; 0xbe2 <WHEEL_AdjustSpeed+0x6c>
     bdc:	8a 50       	subi	r24, 0x0A	; 10
     bde:	80 93 86 00 	sts	0x0086, r24
     be2:	81 e0       	ldi	r24, 0x01	; 1
     be4:	66 e0       	ldi	r22, 0x06	; 6
     be6:	c0 e0       	ldi	r28, 0x00	; 0
     be8:	d0 e0       	ldi	r29, 0x00	; 0
     bea:	ae 01       	movw	r20, r28
     bec:	0e 94 81 08 	call	0x1102	; 0x1102 <DIO_ReadValue>
     bf0:	88 81       	ld	r24, Y
     bf2:	81 30       	cpi	r24, 0x01	; 1
     bf4:	59 f4       	brne	.+22     	; 0xc0c <WHEEL_AdjustSpeed+0x96>
     bf6:	8f ef       	ldi	r24, 0xFF	; 255
     bf8:	96 e1       	ldi	r25, 0x16	; 22
     bfa:	a1 e1       	ldi	r26, 0x11	; 17
     bfc:	81 50       	subi	r24, 0x01	; 1
     bfe:	90 40       	sbci	r25, 0x00	; 0
     c00:	a0 40       	sbci	r26, 0x00	; 0
     c02:	e1 f7       	brne	.-8      	; 0xbfc <WHEEL_AdjustSpeed+0x86>
     c04:	00 c0       	rjmp	.+0      	; 0xc06 <WHEEL_AdjustSpeed+0x90>
     c06:	00 00       	nop
     c08:	10 92 86 00 	sts	0x0086, r1
     c0c:	90 91 86 00 	lds	r25, 0x0086
     c10:	80 e0       	ldi	r24, 0x00	; 0
     c12:	64 e6       	ldi	r22, 0x64	; 100
     c14:	70 e0       	ldi	r23, 0x00	; 0
     c16:	0e 94 75 0f 	call	0x1eea	; 0x1eea <__divmodhi4>
     c1a:	63 bd       	out	0x23, r22	; 35
     c1c:	df 91       	pop	r29
     c1e:	cf 91       	pop	r28
     c20:	08 95       	ret

00000c22 <SERVO_init>:
#include "../include/SERVO_interface.h"
#include "../include/SERVO_private.h"

void SERVO_init(void)
{
	DIO_SetPinDirection(TMR1_OC1A_PORT,TMR1_OC1A_PIN,DIO_PIN_OUTPUT);
     c22:	83 e0       	ldi	r24, 0x03	; 3
     c24:	65 e0       	ldi	r22, 0x05	; 5
     c26:	41 e0       	ldi	r20, 0x01	; 1
     c28:	0e 94 07 07 	call	0xe0e	; 0xe0e <DIO_SetPinDirection>
	TMR1_init();
     c2c:	0e 94 54 0b 	call	0x16a8	; 0x16a8 <TMR1_init>
}
     c30:	08 95       	ret

00000c32 <SERVO_TurnON>:

void SERVO_TurnON(f32 Angle)
{
	f32 DutyCycle;
	DutyCycle=5.0+(Angle/36.0);
     c32:	20 e0       	ldi	r18, 0x00	; 0
     c34:	30 e0       	ldi	r19, 0x00	; 0
     c36:	40 e1       	ldi	r20, 0x10	; 16
     c38:	52 e4       	ldi	r21, 0x42	; 66
     c3a:	0e 94 c8 0d 	call	0x1b90	; 0x1b90 <__divsf3>
     c3e:	20 e0       	ldi	r18, 0x00	; 0
     c40:	30 e0       	ldi	r19, 0x00	; 0
     c42:	40 ea       	ldi	r20, 0xA0	; 160
     c44:	50 e4       	ldi	r21, 0x40	; 64
     c46:	0e 94 60 0d 	call	0x1ac0	; 0x1ac0 <__addsf3>
     c4a:	ab 01       	movw	r20, r22
     c4c:	bc 01       	movw	r22, r24
	TMR1_SetDutyCycle_And_Freq_Value(50,DutyCycle);
     c4e:	82 e3       	ldi	r24, 0x32	; 50
     c50:	90 e0       	ldi	r25, 0x00	; 0
     c52:	0e 94 81 0b 	call	0x1702	; 0x1702 <TMR1_SetDutyCycle_And_Freq_Value>
	TMR1_Start();
     c56:	0e 94 6d 0b 	call	0x16da	; 0x16da <TMR1_Start>
}
     c5a:	08 95       	ret

00000c5c <SERVO_TurnOFF>:

void SERVO_TurnOFF()
{
	TMR1_Stop();
     c5c:	0e 94 77 0b 	call	0x16ee	; 0x16ee <TMR1_Stop>
}
     c60:	08 95       	ret

00000c62 <Ultrasonic_init>:


// ----- Ultrasonic Initialization Configuration ----- //
void Ultrasonic_init()
{
	DIO_SetPinDirection(ULTRASONIC_TRIGGER_PORT,ULTRASONIC_TRIGGER_PIN,DIO_PIN_OUTPUT);
     c62:	83 e0       	ldi	r24, 0x03	; 3
     c64:	66 e0       	ldi	r22, 0x06	; 6
     c66:	41 e0       	ldi	r20, 0x01	; 1
     c68:	0e 94 07 07 	call	0xe0e	; 0xe0e <DIO_SetPinDirection>
}
     c6c:	08 95       	ret

00000c6e <Ultrasonic_ReadDistance>:


// ----- Ultrasonic Distance Measurement ----- //
void Ultrasonic_ReadDistance(f64* distance)
{
     c6e:	cf 93       	push	r28
     c70:	df 93       	push	r29
     c72:	ec 01       	movw	r28, r24
	u8 Echo_Value;
	u64 count = 0;					// Time Counts Variable
	// Distance Between Ultrasonic & Obstacle
	//choose which Us who will receive  the trigger
	DIO_SetPinValue(ULTRASONIC_TRIGGER_PORT,ULTRASONIC_TRIGGER_PIN,DIO_PIN_HIGH);
     c74:	83 e0       	ldi	r24, 0x03	; 3
     c76:	66 e0       	ldi	r22, 0x06	; 6
     c78:	41 e0       	ldi	r20, 0x01	; 1
     c7a:	0e 94 9d 07 	call	0xf3a	; 0xf3a <DIO_SetPinValue>
	#else
		//round up by default
		__ticks_dc = (uint32_t)(ceil(fabs(__tmp)));
	#endif

	__builtin_avr_delay_cycles(__ticks_dc);
     c7e:	25 e3       	ldi	r18, 0x35	; 53
     c80:	2a 95       	dec	r18
     c82:	f1 f7       	brne	.-4      	; 0xc80 <Ultrasonic_ReadDistance+0x12>
     c84:	00 00       	nop
	_delay_us(10);
	DIO_SetPinValue(ULTRASONIC_TRIGGER_PORT,ULTRASONIC_TRIGGER_PIN,DIO_PIN_LOW);
     c86:	83 e0       	ldi	r24, 0x03	; 3
     c88:	66 e0       	ldi	r22, 0x06	; 6
     c8a:	40 e0       	ldi	r20, 0x00	; 0
     c8c:	0e 94 9d 07 	call	0xf3a	; 0xf3a <DIO_SetPinValue>
	
	//wait till the one of ECHO arrived
	while((PIND & (1<<3)) >>3 == 0);
     c90:	83 9b       	sbis	0x10, 3	; 16
     c92:	fe cf       	rjmp	.-4      	; 0xc90 <Ultrasonic_ReadDistance+0x22>
	//calculate the ECHO time
	while((PIND & (1<<3)) >>3 == 1){
     c94:	83 9b       	sbis	0x10, 3	; 16
     c96:	0d c0       	rjmp	.+26     	; 0xcb2 <Ultrasonic_ReadDistance+0x44>
     c98:	80 e0       	ldi	r24, 0x00	; 0
     c9a:	90 e0       	ldi	r25, 0x00	; 0
     c9c:	dc 01       	movw	r26, r24
     c9e:	25 e0       	ldi	r18, 0x05	; 5
     ca0:	2a 95       	dec	r18
     ca2:	f1 f7       	brne	.-4      	; 0xca0 <Ultrasonic_ReadDistance+0x32>
     ca4:	00 00       	nop
		// Converting The Counts To Microseconds Variable
		_delay_us(1);
		count++;
     ca6:	01 96       	adiw	r24, 0x01	; 1
     ca8:	a1 1d       	adc	r26, r1
     caa:	b1 1d       	adc	r27, r1
	DIO_SetPinValue(ULTRASONIC_TRIGGER_PORT,ULTRASONIC_TRIGGER_PIN,DIO_PIN_LOW);
	
	//wait till the one of ECHO arrived
	while((PIND & (1<<3)) >>3 == 0);
	//calculate the ECHO time
	while((PIND & (1<<3)) >>3 == 1){
     cac:	83 99       	sbic	0x10, 3	; 16
     cae:	f7 cf       	rjmp	.-18     	; 0xc9e <Ultrasonic_ReadDistance+0x30>
     cb0:	03 c0       	rjmp	.+6      	; 0xcb8 <Ultrasonic_ReadDistance+0x4a>
     cb2:	80 e0       	ldi	r24, 0x00	; 0
     cb4:	90 e0       	ldi	r25, 0x00	; 0
     cb6:	dc 01       	movw	r26, r24
		// Converting The Counts To Microseconds Variable
		_delay_us(1);
		count++;
	}
	*distance = (f64)count/40.00;					// Distance Equation.
     cb8:	bc 01       	movw	r22, r24
     cba:	cd 01       	movw	r24, r26
     cbc:	0e 94 5c 0e 	call	0x1cb8	; 0x1cb8 <__floatunsisf>
     cc0:	20 e0       	ldi	r18, 0x00	; 0
     cc2:	30 e0       	ldi	r19, 0x00	; 0
     cc4:	40 e2       	ldi	r20, 0x20	; 32
     cc6:	52 e4       	ldi	r21, 0x42	; 66
     cc8:	0e 94 c8 0d 	call	0x1b90	; 0x1b90 <__divsf3>
     ccc:	dc 01       	movw	r26, r24
     cce:	cb 01       	movw	r24, r22
     cd0:	88 83       	st	Y, r24
     cd2:	99 83       	std	Y+1, r25	; 0x01
     cd4:	aa 83       	std	Y+2, r26	; 0x02
     cd6:	bb 83       	std	Y+3, r27	; 0x03
     cd8:	df 91       	pop	r29
     cda:	cf 91       	pop	r28
     cdc:	08 95       	ret

00000cde <FloatToString>:
 *  Author: 2A_TEAM
 */ 

#include "../UTILITES/STD_TYPE.h"

u8* FloatToString(f64 Number) {
     cde:	8f 92       	push	r8
     ce0:	9f 92       	push	r9
     ce2:	af 92       	push	r10
     ce4:	bf 92       	push	r11
     ce6:	cf 92       	push	r12
     ce8:	df 92       	push	r13
     cea:	ef 92       	push	r14
     cec:	ff 92       	push	r15
     cee:	0f 93       	push	r16
     cf0:	1f 93       	push	r17
     cf2:	cf 93       	push	r28
     cf4:	df 93       	push	r29
     cf6:	cd b7       	in	r28, 0x3d	; 61
     cf8:	de b7       	in	r29, 0x3e	; 62
     cfa:	60 97       	sbiw	r28, 0x10	; 16
     cfc:	0f b6       	in	r0, 0x3f	; 63
     cfe:	f8 94       	cli
     d00:	de bf       	out	0x3e, r29	; 62
     d02:	0f be       	out	0x3f, r0	; 63
     d04:	cd bf       	out	0x3d, r28	; 61
     d06:	6b 01       	movw	r12, r22
     d08:	7c 01       	movw	r14, r24
	u8 str[16];
	u8 *tmpsign = (Number < 0) ? "-" : "";
     d0a:	20 e0       	ldi	r18, 0x00	; 0
     d0c:	30 e0       	ldi	r19, 0x00	; 0
     d0e:	a9 01       	movw	r20, r18
     d10:	0e 94 c4 0d 	call	0x1b88	; 0x1b88 <__cmpsf2>
     d14:	88 23       	and	r24, r24
     d16:	5c f4       	brge	.+22     	; 0xd2e <FloatToString+0x50>
	f32 tmpval = (Number < 0) ? -Number : Number;
     d18:	f7 fa       	bst	r15, 7
     d1a:	f0 94       	com	r15
     d1c:	f7 f8       	bld	r15, 7
     d1e:	f0 94       	com	r15

#include "../UTILITES/STD_TYPE.h"

u8* FloatToString(f64 Number) {
	u8 str[16];
	u8 *tmpsign = (Number < 0) ? "-" : "";
     d20:	0f 2e       	mov	r0, r31
     d22:	f2 e7       	ldi	r31, 0x72	; 114
     d24:	8f 2e       	mov	r8, r31
     d26:	f0 e0       	ldi	r31, 0x00	; 0
     d28:	9f 2e       	mov	r9, r31
     d2a:	f0 2d       	mov	r31, r0
     d2c:	06 c0       	rjmp	.+12     	; 0xd3a <FloatToString+0x5c>
     d2e:	0f 2e       	mov	r0, r31
     d30:	f4 e7       	ldi	r31, 0x74	; 116
     d32:	8f 2e       	mov	r8, r31
     d34:	f0 e0       	ldi	r31, 0x00	; 0
     d36:	9f 2e       	mov	r9, r31
     d38:	f0 2d       	mov	r31, r0
	f32 tmpval = (Number < 0) ? -Number : Number;
	u16 tmpint1 = (u16)tmpval;
     d3a:	c7 01       	movw	r24, r14
     d3c:	b6 01       	movw	r22, r12
     d3e:	0e 94 30 0e 	call	0x1c60	; 0x1c60 <__fixunssfsi>
     d42:	dc 01       	movw	r26, r24
     d44:	cb 01       	movw	r24, r22
	f32 tmpfrac = tmpval - (float)tmpint1;
	u16 tmpint2 = tmpfrac * 10000;
	sprintf(str, "%s%d.%04d", tmpsign, tmpint1, tmpint2);
     d46:	2d b7       	in	r18, 0x3d	; 61
     d48:	3e b7       	in	r19, 0x3e	; 62
     d4a:	2a 50       	subi	r18, 0x0A	; 10
     d4c:	30 40       	sbci	r19, 0x00	; 0
     d4e:	0f b6       	in	r0, 0x3f	; 63
     d50:	f8 94       	cli
     d52:	3e bf       	out	0x3e, r19	; 62
     d54:	0f be       	out	0x3f, r0	; 63
     d56:	2d bf       	out	0x3d, r18	; 61
     d58:	0d b7       	in	r16, 0x3d	; 61
     d5a:	1e b7       	in	r17, 0x3e	; 62
     d5c:	0f 5f       	subi	r16, 0xFF	; 255
     d5e:	1f 4f       	sbci	r17, 0xFF	; 255
     d60:	5e 01       	movw	r10, r28
     d62:	08 94       	sec
     d64:	a1 1c       	adc	r10, r1
     d66:	b1 1c       	adc	r11, r1
     d68:	ed b7       	in	r30, 0x3d	; 61
     d6a:	fe b7       	in	r31, 0x3e	; 62
     d6c:	b2 82       	std	Z+2, r11	; 0x02
     d6e:	a1 82       	std	Z+1, r10	; 0x01
     d70:	25 e7       	ldi	r18, 0x75	; 117
     d72:	30 e0       	ldi	r19, 0x00	; 0
     d74:	f8 01       	movw	r30, r16
     d76:	33 83       	std	Z+3, r19	; 0x03
     d78:	22 83       	std	Z+2, r18	; 0x02
     d7a:	95 82       	std	Z+5, r9	; 0x05
     d7c:	84 82       	std	Z+4, r8	; 0x04
     d7e:	97 83       	std	Z+7, r25	; 0x07
     d80:	86 83       	std	Z+6, r24	; 0x06
u8* FloatToString(f64 Number) {
	u8 str[16];
	u8 *tmpsign = (Number < 0) ? "-" : "";
	f32 tmpval = (Number < 0) ? -Number : Number;
	u16 tmpint1 = (u16)tmpval;
	f32 tmpfrac = tmpval - (float)tmpint1;
     d82:	bc 01       	movw	r22, r24
     d84:	80 e0       	ldi	r24, 0x00	; 0
     d86:	90 e0       	ldi	r25, 0x00	; 0
     d88:	0e 94 5c 0e 	call	0x1cb8	; 0x1cb8 <__floatunsisf>
     d8c:	9b 01       	movw	r18, r22
     d8e:	ac 01       	movw	r20, r24
     d90:	c7 01       	movw	r24, r14
     d92:	b6 01       	movw	r22, r12
     d94:	0e 94 5f 0d 	call	0x1abe	; 0x1abe <__subsf3>
	u16 tmpint2 = tmpfrac * 10000;
     d98:	20 e0       	ldi	r18, 0x00	; 0
     d9a:	30 e4       	ldi	r19, 0x40	; 64
     d9c:	4c e1       	ldi	r20, 0x1C	; 28
     d9e:	56 e4       	ldi	r21, 0x46	; 70
     da0:	0e 94 12 0f 	call	0x1e24	; 0x1e24 <__mulsf3>
     da4:	0e 94 30 0e 	call	0x1c60	; 0x1c60 <__fixunssfsi>
     da8:	dc 01       	movw	r26, r24
     daa:	cb 01       	movw	r24, r22
	sprintf(str, "%s%d.%04d", tmpsign, tmpint1, tmpint2);
     dac:	f8 01       	movw	r30, r16
     dae:	91 87       	std	Z+9, r25	; 0x09
     db0:	80 87       	std	Z+8, r24	; 0x08
     db2:	0e 94 24 11 	call	0x2248	; 0x2248 <sprintf>

	// Allocate memory for the string and copy it
	char * String = (char *)malloc(strlen(str) + 1);
     db6:	f5 01       	movw	r30, r10
     db8:	01 90       	ld	r0, Z+
     dba:	00 20       	and	r0, r0
     dbc:	e9 f7       	brne	.-6      	; 0xdb8 <FloatToString+0xda>
     dbe:	cf 01       	movw	r24, r30
     dc0:	2d b7       	in	r18, 0x3d	; 61
     dc2:	3e b7       	in	r19, 0x3e	; 62
     dc4:	26 5f       	subi	r18, 0xF6	; 246
     dc6:	3f 4f       	sbci	r19, 0xFF	; 255
     dc8:	0f b6       	in	r0, 0x3f	; 63
     dca:	f8 94       	cli
     dcc:	3e bf       	out	0x3e, r19	; 62
     dce:	0f be       	out	0x3f, r0	; 63
     dd0:	2d bf       	out	0x3d, r18	; 61
     dd2:	8a 19       	sub	r24, r10
     dd4:	9b 09       	sbc	r25, r11
     dd6:	0e 94 be 0f 	call	0x1f7c	; 0x1f7c <malloc>
     dda:	18 2f       	mov	r17, r24
     ddc:	c9 2e       	mov	r12, r25
	strcpy(String, str);
     dde:	b5 01       	movw	r22, r10
     de0:	0e 94 ed 10 	call	0x21da	; 0x21da <strcpy>
	return String;
     de4:	81 2f       	mov	r24, r17
     de6:	9c 2d       	mov	r25, r12
     de8:	60 96       	adiw	r28, 0x10	; 16
     dea:	0f b6       	in	r0, 0x3f	; 63
     dec:	f8 94       	cli
     dee:	de bf       	out	0x3e, r29	; 62
     df0:	0f be       	out	0x3f, r0	; 63
     df2:	cd bf       	out	0x3d, r28	; 61
     df4:	df 91       	pop	r29
     df6:	cf 91       	pop	r28
     df8:	1f 91       	pop	r17
     dfa:	0f 91       	pop	r16
     dfc:	ff 90       	pop	r15
     dfe:	ef 90       	pop	r14
     e00:	df 90       	pop	r13
     e02:	cf 90       	pop	r12
     e04:	bf 90       	pop	r11
     e06:	af 90       	pop	r10
     e08:	9f 90       	pop	r9
     e0a:	8f 90       	pop	r8
     e0c:	08 95       	ret

00000e0e <DIO_SetPinDirection>:
     e0e:	84 30       	cpi	r24, 0x04	; 4
     e10:	08 f0       	brcs	.+2      	; 0xe14 <DIO_SetPinDirection+0x6>
     e12:	8b c0       	rjmp	.+278    	; 0xf2a <DIO_SetPinDirection+0x11c>
     e14:	68 30       	cpi	r22, 0x08	; 8
     e16:	08 f0       	brcs	.+2      	; 0xe1a <DIO_SetPinDirection+0xc>
     e18:	8a c0       	rjmp	.+276    	; 0xf2e <DIO_SetPinDirection+0x120>
     e1a:	42 30       	cpi	r20, 0x02	; 2
     e1c:	08 f0       	brcs	.+2      	; 0xe20 <DIO_SetPinDirection+0x12>
     e1e:	89 c0       	rjmp	.+274    	; 0xf32 <DIO_SetPinDirection+0x124>
     e20:	81 30       	cpi	r24, 0x01	; 1
     e22:	41 f1       	breq	.+80     	; 0xe74 <DIO_SetPinDirection+0x66>
     e24:	81 30       	cpi	r24, 0x01	; 1
     e26:	38 f0       	brcs	.+14     	; 0xe36 <DIO_SetPinDirection+0x28>
     e28:	82 30       	cpi	r24, 0x02	; 2
     e2a:	09 f4       	brne	.+2      	; 0xe2e <DIO_SetPinDirection+0x20>
     e2c:	41 c0       	rjmp	.+130    	; 0xeb0 <DIO_SetPinDirection+0xa2>
     e2e:	83 30       	cpi	r24, 0x03	; 3
     e30:	09 f0       	breq	.+2      	; 0xe34 <DIO_SetPinDirection+0x26>
     e32:	81 c0       	rjmp	.+258    	; 0xf36 <DIO_SetPinDirection+0x128>
     e34:	5b c0       	rjmp	.+182    	; 0xeec <DIO_SetPinDirection+0xde>
     e36:	41 30       	cpi	r20, 0x01	; 1
     e38:	71 f4       	brne	.+28     	; 0xe56 <DIO_SetPinDirection+0x48>
     e3a:	2a b3       	in	r18, 0x1a	; 26
     e3c:	81 e0       	ldi	r24, 0x01	; 1
     e3e:	90 e0       	ldi	r25, 0x00	; 0
     e40:	ac 01       	movw	r20, r24
     e42:	02 c0       	rjmp	.+4      	; 0xe48 <DIO_SetPinDirection+0x3a>
     e44:	44 0f       	add	r20, r20
     e46:	55 1f       	adc	r21, r21
     e48:	6a 95       	dec	r22
     e4a:	e2 f7       	brpl	.-8      	; 0xe44 <DIO_SetPinDirection+0x36>
     e4c:	ba 01       	movw	r22, r20
     e4e:	62 2b       	or	r22, r18
     e50:	6a bb       	out	0x1a, r22	; 26
     e52:	80 e0       	ldi	r24, 0x00	; 0
     e54:	08 95       	ret
     e56:	2a b3       	in	r18, 0x1a	; 26
     e58:	81 e0       	ldi	r24, 0x01	; 1
     e5a:	90 e0       	ldi	r25, 0x00	; 0
     e5c:	ac 01       	movw	r20, r24
     e5e:	02 c0       	rjmp	.+4      	; 0xe64 <DIO_SetPinDirection+0x56>
     e60:	44 0f       	add	r20, r20
     e62:	55 1f       	adc	r21, r21
     e64:	6a 95       	dec	r22
     e66:	e2 f7       	brpl	.-8      	; 0xe60 <DIO_SetPinDirection+0x52>
     e68:	ba 01       	movw	r22, r20
     e6a:	60 95       	com	r22
     e6c:	62 23       	and	r22, r18
     e6e:	6a bb       	out	0x1a, r22	; 26
     e70:	80 e0       	ldi	r24, 0x00	; 0
     e72:	08 95       	ret
     e74:	41 30       	cpi	r20, 0x01	; 1
     e76:	69 f4       	brne	.+26     	; 0xe92 <DIO_SetPinDirection+0x84>
     e78:	47 b3       	in	r20, 0x17	; 23
     e7a:	21 e0       	ldi	r18, 0x01	; 1
     e7c:	30 e0       	ldi	r19, 0x00	; 0
     e7e:	c9 01       	movw	r24, r18
     e80:	02 c0       	rjmp	.+4      	; 0xe86 <DIO_SetPinDirection+0x78>
     e82:	88 0f       	add	r24, r24
     e84:	99 1f       	adc	r25, r25
     e86:	6a 95       	dec	r22
     e88:	e2 f7       	brpl	.-8      	; 0xe82 <DIO_SetPinDirection+0x74>
     e8a:	84 2b       	or	r24, r20
     e8c:	87 bb       	out	0x17, r24	; 23
     e8e:	80 e0       	ldi	r24, 0x00	; 0
     e90:	08 95       	ret
     e92:	27 b3       	in	r18, 0x17	; 23
     e94:	81 e0       	ldi	r24, 0x01	; 1
     e96:	90 e0       	ldi	r25, 0x00	; 0
     e98:	ac 01       	movw	r20, r24
     e9a:	02 c0       	rjmp	.+4      	; 0xea0 <DIO_SetPinDirection+0x92>
     e9c:	44 0f       	add	r20, r20
     e9e:	55 1f       	adc	r21, r21
     ea0:	6a 95       	dec	r22
     ea2:	e2 f7       	brpl	.-8      	; 0xe9c <DIO_SetPinDirection+0x8e>
     ea4:	ba 01       	movw	r22, r20
     ea6:	60 95       	com	r22
     ea8:	62 23       	and	r22, r18
     eaa:	67 bb       	out	0x17, r22	; 23
     eac:	80 e0       	ldi	r24, 0x00	; 0
     eae:	08 95       	ret
     eb0:	41 30       	cpi	r20, 0x01	; 1
     eb2:	69 f4       	brne	.+26     	; 0xece <DIO_SetPinDirection+0xc0>
     eb4:	44 b3       	in	r20, 0x14	; 20
     eb6:	21 e0       	ldi	r18, 0x01	; 1
     eb8:	30 e0       	ldi	r19, 0x00	; 0
     eba:	c9 01       	movw	r24, r18
     ebc:	02 c0       	rjmp	.+4      	; 0xec2 <DIO_SetPinDirection+0xb4>
     ebe:	88 0f       	add	r24, r24
     ec0:	99 1f       	adc	r25, r25
     ec2:	6a 95       	dec	r22
     ec4:	e2 f7       	brpl	.-8      	; 0xebe <DIO_SetPinDirection+0xb0>
     ec6:	84 2b       	or	r24, r20
     ec8:	84 bb       	out	0x14, r24	; 20
     eca:	80 e0       	ldi	r24, 0x00	; 0
     ecc:	08 95       	ret
     ece:	24 b3       	in	r18, 0x14	; 20
     ed0:	81 e0       	ldi	r24, 0x01	; 1
     ed2:	90 e0       	ldi	r25, 0x00	; 0
     ed4:	ac 01       	movw	r20, r24
     ed6:	02 c0       	rjmp	.+4      	; 0xedc <DIO_SetPinDirection+0xce>
     ed8:	44 0f       	add	r20, r20
     eda:	55 1f       	adc	r21, r21
     edc:	6a 95       	dec	r22
     ede:	e2 f7       	brpl	.-8      	; 0xed8 <DIO_SetPinDirection+0xca>
     ee0:	ba 01       	movw	r22, r20
     ee2:	60 95       	com	r22
     ee4:	62 23       	and	r22, r18
     ee6:	64 bb       	out	0x14, r22	; 20
     ee8:	80 e0       	ldi	r24, 0x00	; 0
     eea:	08 95       	ret
     eec:	41 30       	cpi	r20, 0x01	; 1
     eee:	71 f4       	brne	.+28     	; 0xf0c <DIO_SetPinDirection+0xfe>
     ef0:	21 b3       	in	r18, 0x11	; 17
     ef2:	81 e0       	ldi	r24, 0x01	; 1
     ef4:	90 e0       	ldi	r25, 0x00	; 0
     ef6:	ac 01       	movw	r20, r24
     ef8:	02 c0       	rjmp	.+4      	; 0xefe <DIO_SetPinDirection+0xf0>
     efa:	44 0f       	add	r20, r20
     efc:	55 1f       	adc	r21, r21
     efe:	6a 95       	dec	r22
     f00:	e2 f7       	brpl	.-8      	; 0xefa <DIO_SetPinDirection+0xec>
     f02:	ba 01       	movw	r22, r20
     f04:	62 2b       	or	r22, r18
     f06:	61 bb       	out	0x11, r22	; 17
     f08:	80 e0       	ldi	r24, 0x00	; 0
     f0a:	08 95       	ret
     f0c:	21 b3       	in	r18, 0x11	; 17
     f0e:	81 e0       	ldi	r24, 0x01	; 1
     f10:	90 e0       	ldi	r25, 0x00	; 0
     f12:	ac 01       	movw	r20, r24
     f14:	02 c0       	rjmp	.+4      	; 0xf1a <DIO_SetPinDirection+0x10c>
     f16:	44 0f       	add	r20, r20
     f18:	55 1f       	adc	r21, r21
     f1a:	6a 95       	dec	r22
     f1c:	e2 f7       	brpl	.-8      	; 0xf16 <DIO_SetPinDirection+0x108>
     f1e:	ba 01       	movw	r22, r20
     f20:	60 95       	com	r22
     f22:	62 23       	and	r22, r18
     f24:	61 bb       	out	0x11, r22	; 17
     f26:	80 e0       	ldi	r24, 0x00	; 0
     f28:	08 95       	ret
     f2a:	81 e0       	ldi	r24, 0x01	; 1
     f2c:	08 95       	ret
     f2e:	81 e0       	ldi	r24, 0x01	; 1
     f30:	08 95       	ret
     f32:	81 e0       	ldi	r24, 0x01	; 1
     f34:	08 95       	ret
     f36:	80 e0       	ldi	r24, 0x00	; 0
     f38:	08 95       	ret

00000f3a <DIO_SetPinValue>:
     f3a:	84 30       	cpi	r24, 0x04	; 4
     f3c:	08 f0       	brcs	.+2      	; 0xf40 <DIO_SetPinValue+0x6>
     f3e:	8b c0       	rjmp	.+278    	; 0x1056 <DIO_SetPinValue+0x11c>
     f40:	68 30       	cpi	r22, 0x08	; 8
     f42:	08 f0       	brcs	.+2      	; 0xf46 <DIO_SetPinValue+0xc>
     f44:	8a c0       	rjmp	.+276    	; 0x105a <DIO_SetPinValue+0x120>
     f46:	42 30       	cpi	r20, 0x02	; 2
     f48:	08 f0       	brcs	.+2      	; 0xf4c <DIO_SetPinValue+0x12>
     f4a:	89 c0       	rjmp	.+274    	; 0x105e <DIO_SetPinValue+0x124>
     f4c:	81 30       	cpi	r24, 0x01	; 1
     f4e:	41 f1       	breq	.+80     	; 0xfa0 <DIO_SetPinValue+0x66>
     f50:	81 30       	cpi	r24, 0x01	; 1
     f52:	38 f0       	brcs	.+14     	; 0xf62 <DIO_SetPinValue+0x28>
     f54:	82 30       	cpi	r24, 0x02	; 2
     f56:	09 f4       	brne	.+2      	; 0xf5a <DIO_SetPinValue+0x20>
     f58:	41 c0       	rjmp	.+130    	; 0xfdc <DIO_SetPinValue+0xa2>
     f5a:	83 30       	cpi	r24, 0x03	; 3
     f5c:	09 f0       	breq	.+2      	; 0xf60 <DIO_SetPinValue+0x26>
     f5e:	81 c0       	rjmp	.+258    	; 0x1062 <DIO_SetPinValue+0x128>
     f60:	5b c0       	rjmp	.+182    	; 0x1018 <DIO_SetPinValue+0xde>
     f62:	41 30       	cpi	r20, 0x01	; 1
     f64:	71 f4       	brne	.+28     	; 0xf82 <DIO_SetPinValue+0x48>
     f66:	2b b3       	in	r18, 0x1b	; 27
     f68:	81 e0       	ldi	r24, 0x01	; 1
     f6a:	90 e0       	ldi	r25, 0x00	; 0
     f6c:	ac 01       	movw	r20, r24
     f6e:	02 c0       	rjmp	.+4      	; 0xf74 <DIO_SetPinValue+0x3a>
     f70:	44 0f       	add	r20, r20
     f72:	55 1f       	adc	r21, r21
     f74:	6a 95       	dec	r22
     f76:	e2 f7       	brpl	.-8      	; 0xf70 <DIO_SetPinValue+0x36>
     f78:	ba 01       	movw	r22, r20
     f7a:	62 2b       	or	r22, r18
     f7c:	6b bb       	out	0x1b, r22	; 27
     f7e:	80 e0       	ldi	r24, 0x00	; 0
     f80:	08 95       	ret
     f82:	2b b3       	in	r18, 0x1b	; 27
     f84:	81 e0       	ldi	r24, 0x01	; 1
     f86:	90 e0       	ldi	r25, 0x00	; 0
     f88:	ac 01       	movw	r20, r24
     f8a:	02 c0       	rjmp	.+4      	; 0xf90 <DIO_SetPinValue+0x56>
     f8c:	44 0f       	add	r20, r20
     f8e:	55 1f       	adc	r21, r21
     f90:	6a 95       	dec	r22
     f92:	e2 f7       	brpl	.-8      	; 0xf8c <DIO_SetPinValue+0x52>
     f94:	ba 01       	movw	r22, r20
     f96:	60 95       	com	r22
     f98:	62 23       	and	r22, r18
     f9a:	6b bb       	out	0x1b, r22	; 27
     f9c:	80 e0       	ldi	r24, 0x00	; 0
     f9e:	08 95       	ret
     fa0:	41 30       	cpi	r20, 0x01	; 1
     fa2:	69 f4       	brne	.+26     	; 0xfbe <DIO_SetPinValue+0x84>
     fa4:	48 b3       	in	r20, 0x18	; 24
     fa6:	21 e0       	ldi	r18, 0x01	; 1
     fa8:	30 e0       	ldi	r19, 0x00	; 0
     faa:	c9 01       	movw	r24, r18
     fac:	02 c0       	rjmp	.+4      	; 0xfb2 <DIO_SetPinValue+0x78>
     fae:	88 0f       	add	r24, r24
     fb0:	99 1f       	adc	r25, r25
     fb2:	6a 95       	dec	r22
     fb4:	e2 f7       	brpl	.-8      	; 0xfae <DIO_SetPinValue+0x74>
     fb6:	84 2b       	or	r24, r20
     fb8:	88 bb       	out	0x18, r24	; 24
     fba:	80 e0       	ldi	r24, 0x00	; 0
     fbc:	08 95       	ret
     fbe:	28 b3       	in	r18, 0x18	; 24
     fc0:	81 e0       	ldi	r24, 0x01	; 1
     fc2:	90 e0       	ldi	r25, 0x00	; 0
     fc4:	ac 01       	movw	r20, r24
     fc6:	02 c0       	rjmp	.+4      	; 0xfcc <DIO_SetPinValue+0x92>
     fc8:	44 0f       	add	r20, r20
     fca:	55 1f       	adc	r21, r21
     fcc:	6a 95       	dec	r22
     fce:	e2 f7       	brpl	.-8      	; 0xfc8 <DIO_SetPinValue+0x8e>
     fd0:	ba 01       	movw	r22, r20
     fd2:	60 95       	com	r22
     fd4:	62 23       	and	r22, r18
     fd6:	68 bb       	out	0x18, r22	; 24
     fd8:	80 e0       	ldi	r24, 0x00	; 0
     fda:	08 95       	ret
     fdc:	41 30       	cpi	r20, 0x01	; 1
     fde:	69 f4       	brne	.+26     	; 0xffa <DIO_SetPinValue+0xc0>
     fe0:	45 b3       	in	r20, 0x15	; 21
     fe2:	21 e0       	ldi	r18, 0x01	; 1
     fe4:	30 e0       	ldi	r19, 0x00	; 0
     fe6:	c9 01       	movw	r24, r18
     fe8:	02 c0       	rjmp	.+4      	; 0xfee <DIO_SetPinValue+0xb4>
     fea:	88 0f       	add	r24, r24
     fec:	99 1f       	adc	r25, r25
     fee:	6a 95       	dec	r22
     ff0:	e2 f7       	brpl	.-8      	; 0xfea <DIO_SetPinValue+0xb0>
     ff2:	84 2b       	or	r24, r20
     ff4:	85 bb       	out	0x15, r24	; 21
     ff6:	80 e0       	ldi	r24, 0x00	; 0
     ff8:	08 95       	ret
     ffa:	25 b3       	in	r18, 0x15	; 21
     ffc:	81 e0       	ldi	r24, 0x01	; 1
     ffe:	90 e0       	ldi	r25, 0x00	; 0
    1000:	ac 01       	movw	r20, r24
    1002:	02 c0       	rjmp	.+4      	; 0x1008 <DIO_SetPinValue+0xce>
    1004:	44 0f       	add	r20, r20
    1006:	55 1f       	adc	r21, r21
    1008:	6a 95       	dec	r22
    100a:	e2 f7       	brpl	.-8      	; 0x1004 <DIO_SetPinValue+0xca>
    100c:	ba 01       	movw	r22, r20
    100e:	60 95       	com	r22
    1010:	62 23       	and	r22, r18
    1012:	65 bb       	out	0x15, r22	; 21
    1014:	80 e0       	ldi	r24, 0x00	; 0
    1016:	08 95       	ret
    1018:	41 30       	cpi	r20, 0x01	; 1
    101a:	71 f4       	brne	.+28     	; 0x1038 <DIO_SetPinValue+0xfe>
    101c:	22 b3       	in	r18, 0x12	; 18
    101e:	81 e0       	ldi	r24, 0x01	; 1
    1020:	90 e0       	ldi	r25, 0x00	; 0
    1022:	ac 01       	movw	r20, r24
    1024:	02 c0       	rjmp	.+4      	; 0x102a <DIO_SetPinValue+0xf0>
    1026:	44 0f       	add	r20, r20
    1028:	55 1f       	adc	r21, r21
    102a:	6a 95       	dec	r22
    102c:	e2 f7       	brpl	.-8      	; 0x1026 <DIO_SetPinValue+0xec>
    102e:	ba 01       	movw	r22, r20
    1030:	62 2b       	or	r22, r18
    1032:	62 bb       	out	0x12, r22	; 18
    1034:	80 e0       	ldi	r24, 0x00	; 0
    1036:	08 95       	ret
    1038:	22 b3       	in	r18, 0x12	; 18
    103a:	81 e0       	ldi	r24, 0x01	; 1
    103c:	90 e0       	ldi	r25, 0x00	; 0
    103e:	ac 01       	movw	r20, r24
    1040:	02 c0       	rjmp	.+4      	; 0x1046 <DIO_SetPinValue+0x10c>
    1042:	44 0f       	add	r20, r20
    1044:	55 1f       	adc	r21, r21
    1046:	6a 95       	dec	r22
    1048:	e2 f7       	brpl	.-8      	; 0x1042 <DIO_SetPinValue+0x108>
    104a:	ba 01       	movw	r22, r20
    104c:	60 95       	com	r22
    104e:	62 23       	and	r22, r18
    1050:	62 bb       	out	0x12, r22	; 18
    1052:	80 e0       	ldi	r24, 0x00	; 0
    1054:	08 95       	ret
    1056:	81 e0       	ldi	r24, 0x01	; 1
    1058:	08 95       	ret
    105a:	81 e0       	ldi	r24, 0x01	; 1
    105c:	08 95       	ret
    105e:	81 e0       	ldi	r24, 0x01	; 1
    1060:	08 95       	ret
    1062:	80 e0       	ldi	r24, 0x00	; 0
    1064:	08 95       	ret

00001066 <DIO_TogglePinValue>:
    1066:	84 30       	cpi	r24, 0x04	; 4
    1068:	08 f0       	brcs	.+2      	; 0x106c <DIO_TogglePinValue+0x6>
    106a:	45 c0       	rjmp	.+138    	; 0x10f6 <DIO_TogglePinValue+0x90>
    106c:	68 30       	cpi	r22, 0x08	; 8
    106e:	08 f0       	brcs	.+2      	; 0x1072 <DIO_TogglePinValue+0xc>
    1070:	44 c0       	rjmp	.+136    	; 0x10fa <DIO_TogglePinValue+0x94>
    1072:	81 30       	cpi	r24, 0x01	; 1
    1074:	b1 f0       	breq	.+44     	; 0x10a2 <DIO_TogglePinValue+0x3c>
    1076:	81 30       	cpi	r24, 0x01	; 1
    1078:	30 f0       	brcs	.+12     	; 0x1086 <DIO_TogglePinValue+0x20>
    107a:	82 30       	cpi	r24, 0x02	; 2
    107c:	01 f1       	breq	.+64     	; 0x10be <DIO_TogglePinValue+0x58>
    107e:	83 30       	cpi	r24, 0x03	; 3
    1080:	09 f0       	breq	.+2      	; 0x1084 <DIO_TogglePinValue+0x1e>
    1082:	3d c0       	rjmp	.+122    	; 0x10fe <DIO_TogglePinValue+0x98>
    1084:	2a c0       	rjmp	.+84     	; 0x10da <DIO_TogglePinValue+0x74>
    1086:	2b b3       	in	r18, 0x1b	; 27
    1088:	81 e0       	ldi	r24, 0x01	; 1
    108a:	90 e0       	ldi	r25, 0x00	; 0
    108c:	ac 01       	movw	r20, r24
    108e:	02 c0       	rjmp	.+4      	; 0x1094 <DIO_TogglePinValue+0x2e>
    1090:	44 0f       	add	r20, r20
    1092:	55 1f       	adc	r21, r21
    1094:	6a 95       	dec	r22
    1096:	e2 f7       	brpl	.-8      	; 0x1090 <DIO_TogglePinValue+0x2a>
    1098:	ba 01       	movw	r22, r20
    109a:	62 27       	eor	r22, r18
    109c:	6b bb       	out	0x1b, r22	; 27
    109e:	80 e0       	ldi	r24, 0x00	; 0
    10a0:	08 95       	ret
    10a2:	28 b3       	in	r18, 0x18	; 24
    10a4:	81 e0       	ldi	r24, 0x01	; 1
    10a6:	90 e0       	ldi	r25, 0x00	; 0
    10a8:	ac 01       	movw	r20, r24
    10aa:	02 c0       	rjmp	.+4      	; 0x10b0 <DIO_TogglePinValue+0x4a>
    10ac:	44 0f       	add	r20, r20
    10ae:	55 1f       	adc	r21, r21
    10b0:	6a 95       	dec	r22
    10b2:	e2 f7       	brpl	.-8      	; 0x10ac <DIO_TogglePinValue+0x46>
    10b4:	ba 01       	movw	r22, r20
    10b6:	62 27       	eor	r22, r18
    10b8:	68 bb       	out	0x18, r22	; 24
    10ba:	80 e0       	ldi	r24, 0x00	; 0
    10bc:	08 95       	ret
    10be:	25 b3       	in	r18, 0x15	; 21
    10c0:	81 e0       	ldi	r24, 0x01	; 1
    10c2:	90 e0       	ldi	r25, 0x00	; 0
    10c4:	ac 01       	movw	r20, r24
    10c6:	02 c0       	rjmp	.+4      	; 0x10cc <DIO_TogglePinValue+0x66>
    10c8:	44 0f       	add	r20, r20
    10ca:	55 1f       	adc	r21, r21
    10cc:	6a 95       	dec	r22
    10ce:	e2 f7       	brpl	.-8      	; 0x10c8 <DIO_TogglePinValue+0x62>
    10d0:	ba 01       	movw	r22, r20
    10d2:	62 27       	eor	r22, r18
    10d4:	65 bb       	out	0x15, r22	; 21
    10d6:	80 e0       	ldi	r24, 0x00	; 0
    10d8:	08 95       	ret
    10da:	22 b3       	in	r18, 0x12	; 18
    10dc:	81 e0       	ldi	r24, 0x01	; 1
    10de:	90 e0       	ldi	r25, 0x00	; 0
    10e0:	ac 01       	movw	r20, r24
    10e2:	02 c0       	rjmp	.+4      	; 0x10e8 <DIO_TogglePinValue+0x82>
    10e4:	44 0f       	add	r20, r20
    10e6:	55 1f       	adc	r21, r21
    10e8:	6a 95       	dec	r22
    10ea:	e2 f7       	brpl	.-8      	; 0x10e4 <DIO_TogglePinValue+0x7e>
    10ec:	ba 01       	movw	r22, r20
    10ee:	62 27       	eor	r22, r18
    10f0:	62 bb       	out	0x12, r22	; 18
    10f2:	80 e0       	ldi	r24, 0x00	; 0
    10f4:	08 95       	ret
    10f6:	81 e0       	ldi	r24, 0x01	; 1
    10f8:	08 95       	ret
    10fa:	81 e0       	ldi	r24, 0x01	; 1
    10fc:	08 95       	ret
    10fe:	80 e0       	ldi	r24, 0x00	; 0
    1100:	08 95       	ret

00001102 <DIO_ReadValue>:
    1102:	84 30       	cpi	r24, 0x04	; 4
    1104:	08 f0       	brcs	.+2      	; 0x1108 <DIO_ReadValue+0x6>
    1106:	49 c0       	rjmp	.+146    	; 0x119a <DIO_ReadValue+0x98>
    1108:	68 30       	cpi	r22, 0x08	; 8
    110a:	08 f0       	brcs	.+2      	; 0x110e <DIO_ReadValue+0xc>
    110c:	48 c0       	rjmp	.+144    	; 0x119e <DIO_ReadValue+0x9c>
    110e:	41 15       	cp	r20, r1
    1110:	51 05       	cpc	r21, r1
    1112:	09 f4       	brne	.+2      	; 0x1116 <DIO_ReadValue+0x14>
    1114:	46 c0       	rjmp	.+140    	; 0x11a2 <DIO_ReadValue+0xa0>
    1116:	81 30       	cpi	r24, 0x01	; 1
    1118:	b1 f0       	breq	.+44     	; 0x1146 <DIO_ReadValue+0x44>
    111a:	81 30       	cpi	r24, 0x01	; 1
    111c:	30 f0       	brcs	.+12     	; 0x112a <DIO_ReadValue+0x28>
    111e:	82 30       	cpi	r24, 0x02	; 2
    1120:	01 f1       	breq	.+64     	; 0x1162 <DIO_ReadValue+0x60>
    1122:	83 30       	cpi	r24, 0x03	; 3
    1124:	09 f0       	breq	.+2      	; 0x1128 <DIO_ReadValue+0x26>
    1126:	3f c0       	rjmp	.+126    	; 0x11a6 <DIO_ReadValue+0xa4>
    1128:	2a c0       	rjmp	.+84     	; 0x117e <DIO_ReadValue+0x7c>
    112a:	89 b3       	in	r24, 0x19	; 25
    112c:	90 e0       	ldi	r25, 0x00	; 0
    112e:	9c 01       	movw	r18, r24
    1130:	02 c0       	rjmp	.+4      	; 0x1136 <DIO_ReadValue+0x34>
    1132:	35 95       	asr	r19
    1134:	27 95       	ror	r18
    1136:	6a 95       	dec	r22
    1138:	e2 f7       	brpl	.-8      	; 0x1132 <DIO_ReadValue+0x30>
    113a:	b9 01       	movw	r22, r18
    113c:	61 70       	andi	r22, 0x01	; 1
    113e:	fa 01       	movw	r30, r20
    1140:	60 83       	st	Z, r22
    1142:	80 e0       	ldi	r24, 0x00	; 0
    1144:	08 95       	ret
    1146:	86 b3       	in	r24, 0x16	; 22
    1148:	90 e0       	ldi	r25, 0x00	; 0
    114a:	9c 01       	movw	r18, r24
    114c:	02 c0       	rjmp	.+4      	; 0x1152 <DIO_ReadValue+0x50>
    114e:	35 95       	asr	r19
    1150:	27 95       	ror	r18
    1152:	6a 95       	dec	r22
    1154:	e2 f7       	brpl	.-8      	; 0x114e <DIO_ReadValue+0x4c>
    1156:	b9 01       	movw	r22, r18
    1158:	61 70       	andi	r22, 0x01	; 1
    115a:	fa 01       	movw	r30, r20
    115c:	60 83       	st	Z, r22
    115e:	80 e0       	ldi	r24, 0x00	; 0
    1160:	08 95       	ret
    1162:	83 b3       	in	r24, 0x13	; 19
    1164:	90 e0       	ldi	r25, 0x00	; 0
    1166:	9c 01       	movw	r18, r24
    1168:	02 c0       	rjmp	.+4      	; 0x116e <DIO_ReadValue+0x6c>
    116a:	35 95       	asr	r19
    116c:	27 95       	ror	r18
    116e:	6a 95       	dec	r22
    1170:	e2 f7       	brpl	.-8      	; 0x116a <DIO_ReadValue+0x68>
    1172:	b9 01       	movw	r22, r18
    1174:	61 70       	andi	r22, 0x01	; 1
    1176:	fa 01       	movw	r30, r20
    1178:	60 83       	st	Z, r22
    117a:	80 e0       	ldi	r24, 0x00	; 0
    117c:	08 95       	ret
    117e:	80 b3       	in	r24, 0x10	; 16
    1180:	90 e0       	ldi	r25, 0x00	; 0
    1182:	9c 01       	movw	r18, r24
    1184:	02 c0       	rjmp	.+4      	; 0x118a <DIO_ReadValue+0x88>
    1186:	35 95       	asr	r19
    1188:	27 95       	ror	r18
    118a:	6a 95       	dec	r22
    118c:	e2 f7       	brpl	.-8      	; 0x1186 <DIO_ReadValue+0x84>
    118e:	b9 01       	movw	r22, r18
    1190:	61 70       	andi	r22, 0x01	; 1
    1192:	fa 01       	movw	r30, r20
    1194:	60 83       	st	Z, r22
    1196:	80 e0       	ldi	r24, 0x00	; 0
    1198:	08 95       	ret
    119a:	81 e0       	ldi	r24, 0x01	; 1
    119c:	08 95       	ret
    119e:	81 e0       	ldi	r24, 0x01	; 1
    11a0:	08 95       	ret
    11a2:	81 e0       	ldi	r24, 0x01	; 1
    11a4:	08 95       	ret
    11a6:	80 e0       	ldi	r24, 0x00	; 0
    11a8:	08 95       	ret

000011aa <DIO_activePinInPullUpResistance>:
    11aa:	84 30       	cpi	r24, 0x04	; 4
    11ac:	08 f0       	brcs	.+2      	; 0x11b0 <DIO_activePinInPullUpResistance+0x6>
    11ae:	45 c0       	rjmp	.+138    	; 0x123a <DIO_activePinInPullUpResistance+0x90>
    11b0:	68 30       	cpi	r22, 0x08	; 8
    11b2:	08 f0       	brcs	.+2      	; 0x11b6 <DIO_activePinInPullUpResistance+0xc>
    11b4:	44 c0       	rjmp	.+136    	; 0x123e <DIO_activePinInPullUpResistance+0x94>
    11b6:	81 30       	cpi	r24, 0x01	; 1
    11b8:	b1 f0       	breq	.+44     	; 0x11e6 <DIO_activePinInPullUpResistance+0x3c>
    11ba:	81 30       	cpi	r24, 0x01	; 1
    11bc:	30 f0       	brcs	.+12     	; 0x11ca <DIO_activePinInPullUpResistance+0x20>
    11be:	82 30       	cpi	r24, 0x02	; 2
    11c0:	01 f1       	breq	.+64     	; 0x1202 <DIO_activePinInPullUpResistance+0x58>
    11c2:	83 30       	cpi	r24, 0x03	; 3
    11c4:	09 f0       	breq	.+2      	; 0x11c8 <DIO_activePinInPullUpResistance+0x1e>
    11c6:	3d c0       	rjmp	.+122    	; 0x1242 <DIO_activePinInPullUpResistance+0x98>
    11c8:	2a c0       	rjmp	.+84     	; 0x121e <DIO_activePinInPullUpResistance+0x74>
    11ca:	2b b3       	in	r18, 0x1b	; 27
    11cc:	81 e0       	ldi	r24, 0x01	; 1
    11ce:	90 e0       	ldi	r25, 0x00	; 0
    11d0:	ac 01       	movw	r20, r24
    11d2:	02 c0       	rjmp	.+4      	; 0x11d8 <DIO_activePinInPullUpResistance+0x2e>
    11d4:	44 0f       	add	r20, r20
    11d6:	55 1f       	adc	r21, r21
    11d8:	6a 95       	dec	r22
    11da:	e2 f7       	brpl	.-8      	; 0x11d4 <DIO_activePinInPullUpResistance+0x2a>
    11dc:	ba 01       	movw	r22, r20
    11de:	62 2b       	or	r22, r18
    11e0:	6b bb       	out	0x1b, r22	; 27
    11e2:	80 e0       	ldi	r24, 0x00	; 0
    11e4:	08 95       	ret
    11e6:	28 b3       	in	r18, 0x18	; 24
    11e8:	81 e0       	ldi	r24, 0x01	; 1
    11ea:	90 e0       	ldi	r25, 0x00	; 0
    11ec:	ac 01       	movw	r20, r24
    11ee:	02 c0       	rjmp	.+4      	; 0x11f4 <DIO_activePinInPullUpResistance+0x4a>
    11f0:	44 0f       	add	r20, r20
    11f2:	55 1f       	adc	r21, r21
    11f4:	6a 95       	dec	r22
    11f6:	e2 f7       	brpl	.-8      	; 0x11f0 <DIO_activePinInPullUpResistance+0x46>
    11f8:	ba 01       	movw	r22, r20
    11fa:	62 2b       	or	r22, r18
    11fc:	68 bb       	out	0x18, r22	; 24
    11fe:	80 e0       	ldi	r24, 0x00	; 0
    1200:	08 95       	ret
    1202:	25 b3       	in	r18, 0x15	; 21
    1204:	81 e0       	ldi	r24, 0x01	; 1
    1206:	90 e0       	ldi	r25, 0x00	; 0
    1208:	ac 01       	movw	r20, r24
    120a:	02 c0       	rjmp	.+4      	; 0x1210 <DIO_activePinInPullUpResistance+0x66>
    120c:	44 0f       	add	r20, r20
    120e:	55 1f       	adc	r21, r21
    1210:	6a 95       	dec	r22
    1212:	e2 f7       	brpl	.-8      	; 0x120c <DIO_activePinInPullUpResistance+0x62>
    1214:	ba 01       	movw	r22, r20
    1216:	62 2b       	or	r22, r18
    1218:	65 bb       	out	0x15, r22	; 21
    121a:	80 e0       	ldi	r24, 0x00	; 0
    121c:	08 95       	ret
    121e:	22 b3       	in	r18, 0x12	; 18
    1220:	81 e0       	ldi	r24, 0x01	; 1
    1222:	90 e0       	ldi	r25, 0x00	; 0
    1224:	ac 01       	movw	r20, r24
    1226:	02 c0       	rjmp	.+4      	; 0x122c <DIO_activePinInPullUpResistance+0x82>
    1228:	44 0f       	add	r20, r20
    122a:	55 1f       	adc	r21, r21
    122c:	6a 95       	dec	r22
    122e:	e2 f7       	brpl	.-8      	; 0x1228 <DIO_activePinInPullUpResistance+0x7e>
    1230:	ba 01       	movw	r22, r20
    1232:	62 2b       	or	r22, r18
    1234:	62 bb       	out	0x12, r22	; 18
    1236:	80 e0       	ldi	r24, 0x00	; 0
    1238:	08 95       	ret
    123a:	81 e0       	ldi	r24, 0x01	; 1
    123c:	08 95       	ret
    123e:	81 e0       	ldi	r24, 0x01	; 1
    1240:	08 95       	ret
    1242:	80 e0       	ldi	r24, 0x00	; 0
    1244:	08 95       	ret

00001246 <DIO_setPortDirection>:
    1246:	84 30       	cpi	r24, 0x04	; 4
    1248:	a8 f5       	brcc	.+106    	; 0x12b4 <DIO_setPortDirection+0x6e>
    124a:	81 30       	cpi	r24, 0x01	; 1
    124c:	91 f0       	breq	.+36     	; 0x1272 <DIO_setPortDirection+0x2c>
    124e:	81 30       	cpi	r24, 0x01	; 1
    1250:	28 f0       	brcs	.+10     	; 0x125c <DIO_setPortDirection+0x16>
    1252:	82 30       	cpi	r24, 0x02	; 2
    1254:	c9 f0       	breq	.+50     	; 0x1288 <DIO_setPortDirection+0x42>
    1256:	83 30       	cpi	r24, 0x03	; 3
    1258:	79 f5       	brne	.+94     	; 0x12b8 <DIO_setPortDirection+0x72>
    125a:	21 c0       	rjmp	.+66     	; 0x129e <DIO_setPortDirection+0x58>
    125c:	6f 3f       	cpi	r22, 0xFF	; 255
    125e:	29 f4       	brne	.+10     	; 0x126a <DIO_setPortDirection+0x24>
    1260:	8a b3       	in	r24, 0x1a	; 26
    1262:	8f ef       	ldi	r24, 0xFF	; 255
    1264:	8a bb       	out	0x1a, r24	; 26
    1266:	80 e0       	ldi	r24, 0x00	; 0
    1268:	08 95       	ret
    126a:	8a b3       	in	r24, 0x1a	; 26
    126c:	1a ba       	out	0x1a, r1	; 26
    126e:	80 e0       	ldi	r24, 0x00	; 0
    1270:	08 95       	ret
    1272:	6f 3f       	cpi	r22, 0xFF	; 255
    1274:	29 f4       	brne	.+10     	; 0x1280 <DIO_setPortDirection+0x3a>
    1276:	87 b3       	in	r24, 0x17	; 23
    1278:	8f ef       	ldi	r24, 0xFF	; 255
    127a:	87 bb       	out	0x17, r24	; 23
    127c:	80 e0       	ldi	r24, 0x00	; 0
    127e:	08 95       	ret
    1280:	87 b3       	in	r24, 0x17	; 23
    1282:	17 ba       	out	0x17, r1	; 23
    1284:	80 e0       	ldi	r24, 0x00	; 0
    1286:	08 95       	ret
    1288:	6f 3f       	cpi	r22, 0xFF	; 255
    128a:	29 f4       	brne	.+10     	; 0x1296 <DIO_setPortDirection+0x50>
    128c:	84 b3       	in	r24, 0x14	; 20
    128e:	8f ef       	ldi	r24, 0xFF	; 255
    1290:	84 bb       	out	0x14, r24	; 20
    1292:	80 e0       	ldi	r24, 0x00	; 0
    1294:	08 95       	ret
    1296:	84 b3       	in	r24, 0x14	; 20
    1298:	14 ba       	out	0x14, r1	; 20
    129a:	80 e0       	ldi	r24, 0x00	; 0
    129c:	08 95       	ret
    129e:	6f 3f       	cpi	r22, 0xFF	; 255
    12a0:	29 f4       	brne	.+10     	; 0x12ac <DIO_setPortDirection+0x66>
    12a2:	81 b3       	in	r24, 0x11	; 17
    12a4:	8f ef       	ldi	r24, 0xFF	; 255
    12a6:	81 bb       	out	0x11, r24	; 17
    12a8:	80 e0       	ldi	r24, 0x00	; 0
    12aa:	08 95       	ret
    12ac:	81 b3       	in	r24, 0x11	; 17
    12ae:	11 ba       	out	0x11, r1	; 17
    12b0:	80 e0       	ldi	r24, 0x00	; 0
    12b2:	08 95       	ret
    12b4:	81 e0       	ldi	r24, 0x01	; 1
    12b6:	08 95       	ret
    12b8:	80 e0       	ldi	r24, 0x00	; 0
    12ba:	08 95       	ret

000012bc <DIO_setPortValue>:
    12bc:	84 30       	cpi	r24, 0x04	; 4
    12be:	a8 f4       	brcc	.+42     	; 0x12ea <DIO_setPortValue+0x2e>
    12c0:	81 30       	cpi	r24, 0x01	; 1
    12c2:	51 f0       	breq	.+20     	; 0x12d8 <DIO_setPortValue+0x1c>
    12c4:	81 30       	cpi	r24, 0x01	; 1
    12c6:	28 f0       	brcs	.+10     	; 0x12d2 <DIO_setPortValue+0x16>
    12c8:	82 30       	cpi	r24, 0x02	; 2
    12ca:	49 f0       	breq	.+18     	; 0x12de <DIO_setPortValue+0x22>
    12cc:	83 30       	cpi	r24, 0x03	; 3
    12ce:	79 f4       	brne	.+30     	; 0x12ee <DIO_setPortValue+0x32>
    12d0:	09 c0       	rjmp	.+18     	; 0x12e4 <DIO_setPortValue+0x28>
    12d2:	6b bb       	out	0x1b, r22	; 27
    12d4:	80 e0       	ldi	r24, 0x00	; 0
    12d6:	08 95       	ret
    12d8:	68 bb       	out	0x18, r22	; 24
    12da:	80 e0       	ldi	r24, 0x00	; 0
    12dc:	08 95       	ret
    12de:	65 bb       	out	0x15, r22	; 21
    12e0:	80 e0       	ldi	r24, 0x00	; 0
    12e2:	08 95       	ret
    12e4:	62 bb       	out	0x12, r22	; 18
    12e6:	80 e0       	ldi	r24, 0x00	; 0
    12e8:	08 95       	ret
    12ea:	81 e0       	ldi	r24, 0x01	; 1
    12ec:	08 95       	ret
    12ee:	80 e0       	ldi	r24, 0x00	; 0
    12f0:	08 95       	ret

000012f2 <DIO_getPortValue>:
    12f2:	84 30       	cpi	r24, 0x04	; 4
    12f4:	00 f5       	brcc	.+64     	; 0x1336 <DIO_getPortValue+0x44>
    12f6:	61 15       	cp	r22, r1
    12f8:	71 05       	cpc	r23, r1
    12fa:	f9 f0       	breq	.+62     	; 0x133a <DIO_getPortValue+0x48>
    12fc:	81 30       	cpi	r24, 0x01	; 1
    12fe:	61 f0       	breq	.+24     	; 0x1318 <DIO_getPortValue+0x26>
    1300:	81 30       	cpi	r24, 0x01	; 1
    1302:	28 f0       	brcs	.+10     	; 0x130e <DIO_getPortValue+0x1c>
    1304:	82 30       	cpi	r24, 0x02	; 2
    1306:	69 f0       	breq	.+26     	; 0x1322 <DIO_getPortValue+0x30>
    1308:	83 30       	cpi	r24, 0x03	; 3
    130a:	c9 f4       	brne	.+50     	; 0x133e <DIO_getPortValue+0x4c>
    130c:	0f c0       	rjmp	.+30     	; 0x132c <DIO_getPortValue+0x3a>
    130e:	8b b3       	in	r24, 0x1b	; 27
    1310:	fb 01       	movw	r30, r22
    1312:	80 83       	st	Z, r24
    1314:	80 e0       	ldi	r24, 0x00	; 0
    1316:	08 95       	ret
    1318:	88 b3       	in	r24, 0x18	; 24
    131a:	fb 01       	movw	r30, r22
    131c:	80 83       	st	Z, r24
    131e:	80 e0       	ldi	r24, 0x00	; 0
    1320:	08 95       	ret
    1322:	85 b3       	in	r24, 0x15	; 21
    1324:	fb 01       	movw	r30, r22
    1326:	80 83       	st	Z, r24
    1328:	80 e0       	ldi	r24, 0x00	; 0
    132a:	08 95       	ret
    132c:	82 b3       	in	r24, 0x12	; 18
    132e:	fb 01       	movw	r30, r22
    1330:	80 83       	st	Z, r24
    1332:	80 e0       	ldi	r24, 0x00	; 0
    1334:	08 95       	ret
    1336:	81 e0       	ldi	r24, 0x01	; 1
    1338:	08 95       	ret
    133a:	81 e0       	ldi	r24, 0x01	; 1
    133c:	08 95       	ret
    133e:	80 e0       	ldi	r24, 0x00	; 0
    1340:	08 95       	ret

00001342 <DIO_togglePortValue>:
    1342:	84 30       	cpi	r24, 0x04	; 4
    1344:	e8 f4       	brcc	.+58     	; 0x1380 <DIO_togglePortValue+0x3e>
    1346:	81 30       	cpi	r24, 0x01	; 1
    1348:	61 f0       	breq	.+24     	; 0x1362 <DIO_togglePortValue+0x20>
    134a:	81 30       	cpi	r24, 0x01	; 1
    134c:	28 f0       	brcs	.+10     	; 0x1358 <DIO_togglePortValue+0x16>
    134e:	82 30       	cpi	r24, 0x02	; 2
    1350:	69 f0       	breq	.+26     	; 0x136c <DIO_togglePortValue+0x2a>
    1352:	83 30       	cpi	r24, 0x03	; 3
    1354:	b9 f4       	brne	.+46     	; 0x1384 <DIO_togglePortValue+0x42>
    1356:	0f c0       	rjmp	.+30     	; 0x1376 <DIO_togglePortValue+0x34>
    1358:	8b b3       	in	r24, 0x1b	; 27
    135a:	80 95       	com	r24
    135c:	8b bb       	out	0x1b, r24	; 27
    135e:	80 e0       	ldi	r24, 0x00	; 0
    1360:	08 95       	ret
    1362:	88 b3       	in	r24, 0x18	; 24
    1364:	80 95       	com	r24
    1366:	88 bb       	out	0x18, r24	; 24
    1368:	80 e0       	ldi	r24, 0x00	; 0
    136a:	08 95       	ret
    136c:	85 b3       	in	r24, 0x15	; 21
    136e:	80 95       	com	r24
    1370:	85 bb       	out	0x15, r24	; 21
    1372:	80 e0       	ldi	r24, 0x00	; 0
    1374:	08 95       	ret
    1376:	82 b3       	in	r24, 0x12	; 18
    1378:	80 95       	com	r24
    137a:	82 bb       	out	0x12, r24	; 18
    137c:	80 e0       	ldi	r24, 0x00	; 0
    137e:	08 95       	ret
    1380:	81 e0       	ldi	r24, 0x01	; 1
    1382:	08 95       	ret
    1384:	80 e0       	ldi	r24, 0x00	; 0
    1386:	08 95       	ret

00001388 <DIO_activePortInPullUpResistance>:
    1388:	84 30       	cpi	r24, 0x04	; 4
    138a:	e8 f4       	brcc	.+58     	; 0x13c6 <DIO_activePortInPullUpResistance+0x3e>
    138c:	81 30       	cpi	r24, 0x01	; 1
    138e:	61 f0       	breq	.+24     	; 0x13a8 <DIO_activePortInPullUpResistance+0x20>
    1390:	81 30       	cpi	r24, 0x01	; 1
    1392:	28 f0       	brcs	.+10     	; 0x139e <DIO_activePortInPullUpResistance+0x16>
    1394:	82 30       	cpi	r24, 0x02	; 2
    1396:	69 f0       	breq	.+26     	; 0x13b2 <DIO_activePortInPullUpResistance+0x2a>
    1398:	83 30       	cpi	r24, 0x03	; 3
    139a:	b9 f4       	brne	.+46     	; 0x13ca <DIO_activePortInPullUpResistance+0x42>
    139c:	0f c0       	rjmp	.+30     	; 0x13bc <DIO_activePortInPullUpResistance+0x34>
    139e:	8b b3       	in	r24, 0x1b	; 27
    13a0:	8f ef       	ldi	r24, 0xFF	; 255
    13a2:	8b bb       	out	0x1b, r24	; 27
    13a4:	80 e0       	ldi	r24, 0x00	; 0
    13a6:	08 95       	ret
    13a8:	88 b3       	in	r24, 0x18	; 24
    13aa:	8f ef       	ldi	r24, 0xFF	; 255
    13ac:	88 bb       	out	0x18, r24	; 24
    13ae:	80 e0       	ldi	r24, 0x00	; 0
    13b0:	08 95       	ret
    13b2:	85 b3       	in	r24, 0x15	; 21
    13b4:	8f ef       	ldi	r24, 0xFF	; 255
    13b6:	85 bb       	out	0x15, r24	; 21
    13b8:	80 e0       	ldi	r24, 0x00	; 0
    13ba:	08 95       	ret
    13bc:	82 b3       	in	r24, 0x12	; 18
    13be:	8f ef       	ldi	r24, 0xFF	; 255
    13c0:	82 bb       	out	0x12, r24	; 18
    13c2:	80 e0       	ldi	r24, 0x00	; 0
    13c4:	08 95       	ret
    13c6:	81 e0       	ldi	r24, 0x01	; 1
    13c8:	08 95       	ret
    13ca:	80 e0       	ldi	r24, 0x00	; 0
    13cc:	08 95       	ret

000013ce <EXTI_Enable>:
    13ce:	81 30       	cpi	r24, 0x01	; 1
    13d0:	71 f1       	breq	.+92     	; 0x142e <EXTI_Enable+0x60>
    13d2:	81 30       	cpi	r24, 0x01	; 1
    13d4:	20 f0       	brcs	.+8      	; 0x13de <EXTI_Enable+0x10>
    13d6:	82 30       	cpi	r24, 0x02	; 2
    13d8:	09 f0       	breq	.+2      	; 0x13dc <EXTI_Enable+0xe>
    13da:	60 c0       	rjmp	.+192    	; 0x149c <EXTI_Enable+0xce>
    13dc:	50 c0       	rjmp	.+160    	; 0x147e <EXTI_Enable+0xb0>
    13de:	61 30       	cpi	r22, 0x01	; 1
    13e0:	71 f0       	breq	.+28     	; 0x13fe <EXTI_Enable+0x30>
    13e2:	61 30       	cpi	r22, 0x01	; 1
    13e4:	28 f0       	brcs	.+10     	; 0x13f0 <EXTI_Enable+0x22>
    13e6:	62 30       	cpi	r22, 0x02	; 2
    13e8:	89 f0       	breq	.+34     	; 0x140c <EXTI_Enable+0x3e>
    13ea:	63 30       	cpi	r22, 0x03	; 3
    13ec:	e1 f4       	brne	.+56     	; 0x1426 <EXTI_Enable+0x58>
    13ee:	15 c0       	rjmp	.+42     	; 0x141a <EXTI_Enable+0x4c>
    13f0:	85 b7       	in	r24, 0x35	; 53
    13f2:	81 60       	ori	r24, 0x01	; 1
    13f4:	85 bf       	out	0x35, r24	; 53
    13f6:	85 b7       	in	r24, 0x35	; 53
    13f8:	82 60       	ori	r24, 0x02	; 2
    13fa:	85 bf       	out	0x35, r24	; 53
    13fc:	14 c0       	rjmp	.+40     	; 0x1426 <EXTI_Enable+0x58>
    13fe:	85 b7       	in	r24, 0x35	; 53
    1400:	8e 7f       	andi	r24, 0xFE	; 254
    1402:	85 bf       	out	0x35, r24	; 53
    1404:	85 b7       	in	r24, 0x35	; 53
    1406:	82 60       	ori	r24, 0x02	; 2
    1408:	85 bf       	out	0x35, r24	; 53
    140a:	0d c0       	rjmp	.+26     	; 0x1426 <EXTI_Enable+0x58>
    140c:	85 b7       	in	r24, 0x35	; 53
    140e:	8e 7f       	andi	r24, 0xFE	; 254
    1410:	85 bf       	out	0x35, r24	; 53
    1412:	85 b7       	in	r24, 0x35	; 53
    1414:	8d 7f       	andi	r24, 0xFD	; 253
    1416:	85 bf       	out	0x35, r24	; 53
    1418:	06 c0       	rjmp	.+12     	; 0x1426 <EXTI_Enable+0x58>
    141a:	85 b7       	in	r24, 0x35	; 53
    141c:	81 60       	ori	r24, 0x01	; 1
    141e:	85 bf       	out	0x35, r24	; 53
    1420:	85 b7       	in	r24, 0x35	; 53
    1422:	8d 7f       	andi	r24, 0xFD	; 253
    1424:	85 bf       	out	0x35, r24	; 53
    1426:	8b b7       	in	r24, 0x3b	; 59
    1428:	80 64       	ori	r24, 0x40	; 64
    142a:	8b bf       	out	0x3b, r24	; 59
    142c:	08 95       	ret
    142e:	61 30       	cpi	r22, 0x01	; 1
    1430:	71 f0       	breq	.+28     	; 0x144e <EXTI_Enable+0x80>
    1432:	61 30       	cpi	r22, 0x01	; 1
    1434:	28 f0       	brcs	.+10     	; 0x1440 <EXTI_Enable+0x72>
    1436:	62 30       	cpi	r22, 0x02	; 2
    1438:	89 f0       	breq	.+34     	; 0x145c <EXTI_Enable+0x8e>
    143a:	63 30       	cpi	r22, 0x03	; 3
    143c:	e1 f4       	brne	.+56     	; 0x1476 <EXTI_Enable+0xa8>
    143e:	15 c0       	rjmp	.+42     	; 0x146a <EXTI_Enable+0x9c>
    1440:	85 b7       	in	r24, 0x35	; 53
    1442:	84 60       	ori	r24, 0x04	; 4
    1444:	85 bf       	out	0x35, r24	; 53
    1446:	85 b7       	in	r24, 0x35	; 53
    1448:	88 60       	ori	r24, 0x08	; 8
    144a:	85 bf       	out	0x35, r24	; 53
    144c:	14 c0       	rjmp	.+40     	; 0x1476 <EXTI_Enable+0xa8>
    144e:	85 b7       	in	r24, 0x35	; 53
    1450:	8b 7f       	andi	r24, 0xFB	; 251
    1452:	85 bf       	out	0x35, r24	; 53
    1454:	85 b7       	in	r24, 0x35	; 53
    1456:	88 60       	ori	r24, 0x08	; 8
    1458:	85 bf       	out	0x35, r24	; 53
    145a:	0d c0       	rjmp	.+26     	; 0x1476 <EXTI_Enable+0xa8>
    145c:	85 b7       	in	r24, 0x35	; 53
    145e:	8b 7f       	andi	r24, 0xFB	; 251
    1460:	85 bf       	out	0x35, r24	; 53
    1462:	85 b7       	in	r24, 0x35	; 53
    1464:	87 7f       	andi	r24, 0xF7	; 247
    1466:	85 bf       	out	0x35, r24	; 53
    1468:	06 c0       	rjmp	.+12     	; 0x1476 <EXTI_Enable+0xa8>
    146a:	85 b7       	in	r24, 0x35	; 53
    146c:	84 60       	ori	r24, 0x04	; 4
    146e:	85 bf       	out	0x35, r24	; 53
    1470:	85 b7       	in	r24, 0x35	; 53
    1472:	87 7f       	andi	r24, 0xF7	; 247
    1474:	85 bf       	out	0x35, r24	; 53
    1476:	8b b7       	in	r24, 0x3b	; 59
    1478:	80 68       	ori	r24, 0x80	; 128
    147a:	8b bf       	out	0x3b, r24	; 59
    147c:	08 95       	ret
    147e:	66 23       	and	r22, r22
    1480:	19 f0       	breq	.+6      	; 0x1488 <EXTI_Enable+0xba>
    1482:	61 30       	cpi	r22, 0x01	; 1
    1484:	41 f4       	brne	.+16     	; 0x1496 <EXTI_Enable+0xc8>
    1486:	04 c0       	rjmp	.+8      	; 0x1490 <EXTI_Enable+0xc2>
    1488:	84 b7       	in	r24, 0x34	; 52
    148a:	80 64       	ori	r24, 0x40	; 64
    148c:	84 bf       	out	0x34, r24	; 52
    148e:	03 c0       	rjmp	.+6      	; 0x1496 <EXTI_Enable+0xc8>
    1490:	84 b7       	in	r24, 0x34	; 52
    1492:	8f 7b       	andi	r24, 0xBF	; 191
    1494:	84 bf       	out	0x34, r24	; 52
    1496:	8b b7       	in	r24, 0x3b	; 59
    1498:	80 62       	ori	r24, 0x20	; 32
    149a:	8b bf       	out	0x3b, r24	; 59
    149c:	08 95       	ret

0000149e <EXTI_Disable>:
    149e:	81 30       	cpi	r24, 0x01	; 1
    14a0:	49 f0       	breq	.+18     	; 0x14b4 <EXTI_Disable+0x16>
    14a2:	81 30       	cpi	r24, 0x01	; 1
    14a4:	18 f0       	brcs	.+6      	; 0x14ac <EXTI_Disable+0xe>
    14a6:	82 30       	cpi	r24, 0x02	; 2
    14a8:	61 f4       	brne	.+24     	; 0x14c2 <EXTI_Disable+0x24>
    14aa:	08 c0       	rjmp	.+16     	; 0x14bc <EXTI_Disable+0x1e>
    14ac:	8b b7       	in	r24, 0x3b	; 59
    14ae:	8f 7b       	andi	r24, 0xBF	; 191
    14b0:	8b bf       	out	0x3b, r24	; 59
    14b2:	08 95       	ret
    14b4:	8b b7       	in	r24, 0x3b	; 59
    14b6:	8f 77       	andi	r24, 0x7F	; 127
    14b8:	8b bf       	out	0x3b, r24	; 59
    14ba:	08 95       	ret
    14bc:	8b b7       	in	r24, 0x3b	; 59
    14be:	8f 7d       	andi	r24, 0xDF	; 223
    14c0:	8b bf       	out	0x3b, r24	; 59
    14c2:	08 95       	ret

000014c4 <EXTI_SetCallBackInt0>:
    14c4:	00 97       	sbiw	r24, 0x00	; 0
    14c6:	21 f0       	breq	.+8      	; 0x14d0 <EXTI_SetCallBackInt0+0xc>
    14c8:	90 93 88 00 	sts	0x0088, r25
    14cc:	80 93 87 00 	sts	0x0087, r24
    14d0:	08 95       	ret

000014d2 <EXTI_SetCallBackInt1>:
    14d2:	00 97       	sbiw	r24, 0x00	; 0
    14d4:	21 f0       	breq	.+8      	; 0x14de <EXTI_SetCallBackInt1+0xc>
    14d6:	90 93 8a 00 	sts	0x008A, r25
    14da:	80 93 89 00 	sts	0x0089, r24
    14de:	08 95       	ret

000014e0 <EXTI_SetCallBackInt2>:
    14e0:	00 97       	sbiw	r24, 0x00	; 0
    14e2:	21 f0       	breq	.+8      	; 0x14ec <EXTI_SetCallBackInt2+0xc>
    14e4:	90 93 8c 00 	sts	0x008C, r25
    14e8:	80 93 8b 00 	sts	0x008B, r24
    14ec:	08 95       	ret

000014ee <__vector_1>:
    14ee:	1f 92       	push	r1
    14f0:	0f 92       	push	r0
    14f2:	0f b6       	in	r0, 0x3f	; 63
    14f4:	0f 92       	push	r0
    14f6:	11 24       	eor	r1, r1
    14f8:	2f 93       	push	r18
    14fa:	3f 93       	push	r19
    14fc:	4f 93       	push	r20
    14fe:	5f 93       	push	r21
    1500:	6f 93       	push	r22
    1502:	7f 93       	push	r23
    1504:	8f 93       	push	r24
    1506:	9f 93       	push	r25
    1508:	af 93       	push	r26
    150a:	bf 93       	push	r27
    150c:	ef 93       	push	r30
    150e:	ff 93       	push	r31
    1510:	e0 91 87 00 	lds	r30, 0x0087
    1514:	f0 91 88 00 	lds	r31, 0x0088
    1518:	30 97       	sbiw	r30, 0x00	; 0
    151a:	09 f0       	breq	.+2      	; 0x151e <__vector_1+0x30>
    151c:	09 95       	icall
    151e:	ff 91       	pop	r31
    1520:	ef 91       	pop	r30
    1522:	bf 91       	pop	r27
    1524:	af 91       	pop	r26
    1526:	9f 91       	pop	r25
    1528:	8f 91       	pop	r24
    152a:	7f 91       	pop	r23
    152c:	6f 91       	pop	r22
    152e:	5f 91       	pop	r21
    1530:	4f 91       	pop	r20
    1532:	3f 91       	pop	r19
    1534:	2f 91       	pop	r18
    1536:	0f 90       	pop	r0
    1538:	0f be       	out	0x3f, r0	; 63
    153a:	0f 90       	pop	r0
    153c:	1f 90       	pop	r1
    153e:	18 95       	reti

00001540 <__vector_3>:
    1540:	1f 92       	push	r1
    1542:	0f 92       	push	r0
    1544:	0f b6       	in	r0, 0x3f	; 63
    1546:	0f 92       	push	r0
    1548:	11 24       	eor	r1, r1
    154a:	2f 93       	push	r18
    154c:	3f 93       	push	r19
    154e:	4f 93       	push	r20
    1550:	5f 93       	push	r21
    1552:	6f 93       	push	r22
    1554:	7f 93       	push	r23
    1556:	8f 93       	push	r24
    1558:	9f 93       	push	r25
    155a:	af 93       	push	r26
    155c:	bf 93       	push	r27
    155e:	ef 93       	push	r30
    1560:	ff 93       	push	r31
    1562:	e0 91 8b 00 	lds	r30, 0x008B
    1566:	f0 91 8c 00 	lds	r31, 0x008C
    156a:	30 97       	sbiw	r30, 0x00	; 0
    156c:	09 f0       	breq	.+2      	; 0x1570 <__vector_3+0x30>
    156e:	09 95       	icall
    1570:	ff 91       	pop	r31
    1572:	ef 91       	pop	r30
    1574:	bf 91       	pop	r27
    1576:	af 91       	pop	r26
    1578:	9f 91       	pop	r25
    157a:	8f 91       	pop	r24
    157c:	7f 91       	pop	r23
    157e:	6f 91       	pop	r22
    1580:	5f 91       	pop	r21
    1582:	4f 91       	pop	r20
    1584:	3f 91       	pop	r19
    1586:	2f 91       	pop	r18
    1588:	0f 90       	pop	r0
    158a:	0f be       	out	0x3f, r0	; 63
    158c:	0f 90       	pop	r0
    158e:	1f 90       	pop	r1
    1590:	18 95       	reti

00001592 <GLBI_Enable>:
    1592:	8f b7       	in	r24, 0x3f	; 63
    1594:	80 68       	ori	r24, 0x80	; 128
    1596:	8f bf       	out	0x3f, r24	; 63
    1598:	08 95       	ret

0000159a <TMR0_init>:
    159a:	83 b7       	in	r24, 0x33	; 51
    159c:	8f 7b       	andi	r24, 0xBF	; 191
    159e:	83 bf       	out	0x33, r24	; 51
    15a0:	83 b7       	in	r24, 0x33	; 51
    15a2:	87 7f       	andi	r24, 0xF7	; 247
    15a4:	83 bf       	out	0x33, r24	; 51
    15a6:	12 be       	out	0x32, r1	; 50
    15a8:	89 b7       	in	r24, 0x39	; 57
    15aa:	81 60       	ori	r24, 0x01	; 1
    15ac:	89 bf       	out	0x39, r24	; 57
    15ae:	08 95       	ret

000015b0 <TMR0_Start>:
    15b0:	83 b7       	in	r24, 0x33	; 51
    15b2:	81 60       	ori	r24, 0x01	; 1
    15b4:	83 bf       	out	0x33, r24	; 51
    15b6:	83 b7       	in	r24, 0x33	; 51
    15b8:	8d 7f       	andi	r24, 0xFD	; 253
    15ba:	83 bf       	out	0x33, r24	; 51
    15bc:	83 b7       	in	r24, 0x33	; 51
    15be:	8b 7f       	andi	r24, 0xFB	; 251
    15c0:	83 bf       	out	0x33, r24	; 51
    15c2:	08 95       	ret

000015c4 <TMR0_Stop>:
    15c4:	83 b7       	in	r24, 0x33	; 51
    15c6:	8e 7f       	andi	r24, 0xFE	; 254
    15c8:	83 bf       	out	0x33, r24	; 51
    15ca:	83 b7       	in	r24, 0x33	; 51
    15cc:	8d 7f       	andi	r24, 0xFD	; 253
    15ce:	83 bf       	out	0x33, r24	; 51
    15d0:	83 b7       	in	r24, 0x33	; 51
    15d2:	8b 7f       	andi	r24, 0xFB	; 251
    15d4:	83 bf       	out	0x33, r24	; 51
    15d6:	08 95       	ret

000015d8 <TMR0_SetDelay_ms_UsingCTC>:
    15d8:	29 ef       	ldi	r18, 0xF9	; 249
    15da:	2c bf       	out	0x3c, r18	; 60
    15dc:	90 93 8e 00 	sts	0x008E, r25
    15e0:	80 93 8d 00 	sts	0x008D, r24
    15e4:	08 95       	ret

000015e6 <TMR0_SetCompareMatchValue_FastPWM_NonInverting>:
    15e6:	20 e0       	ldi	r18, 0x00	; 0
    15e8:	30 e0       	ldi	r19, 0x00	; 0
    15ea:	48 ec       	ldi	r20, 0xC8	; 200
    15ec:	52 e4       	ldi	r21, 0x42	; 66
    15ee:	0e 94 c8 0d 	call	0x1b90	; 0x1b90 <__divsf3>
    15f2:	20 e0       	ldi	r18, 0x00	; 0
    15f4:	30 e0       	ldi	r19, 0x00	; 0
    15f6:	40 e8       	ldi	r20, 0x80	; 128
    15f8:	53 e4       	ldi	r21, 0x43	; 67
    15fa:	0e 94 12 0f 	call	0x1e24	; 0x1e24 <__mulsf3>
    15fe:	20 e0       	ldi	r18, 0x00	; 0
    1600:	30 e0       	ldi	r19, 0x00	; 0
    1602:	40 e8       	ldi	r20, 0x80	; 128
    1604:	5f e3       	ldi	r21, 0x3F	; 63
    1606:	0e 94 5f 0d 	call	0x1abe	; 0x1abe <__subsf3>
    160a:	0e 94 30 0e 	call	0x1c60	; 0x1c60 <__fixunssfsi>
    160e:	6c bf       	out	0x3c, r22	; 60
    1610:	08 95       	ret

00001612 <TMR0_SetCallBackOverFlow>:
    1612:	00 97       	sbiw	r24, 0x00	; 0
    1614:	21 f0       	breq	.+8      	; 0x161e <TMR0_SetCallBackOverFlow+0xc>
    1616:	90 93 90 00 	sts	0x0090, r25
    161a:	80 93 8f 00 	sts	0x008F, r24
    161e:	08 95       	ret

00001620 <TMR0_SetCallBackCTC>:
    1620:	00 97       	sbiw	r24, 0x00	; 0
    1622:	21 f0       	breq	.+8      	; 0x162c <TMR0_SetCallBackCTC+0xc>
    1624:	90 93 92 00 	sts	0x0092, r25
    1628:	80 93 91 00 	sts	0x0091, r24
    162c:	08 95       	ret

0000162e <__vector_10>:
    162e:	1f 92       	push	r1
    1630:	0f 92       	push	r0
    1632:	0f b6       	in	r0, 0x3f	; 63
    1634:	0f 92       	push	r0
    1636:	11 24       	eor	r1, r1
    1638:	2f 93       	push	r18
    163a:	3f 93       	push	r19
    163c:	4f 93       	push	r20
    163e:	5f 93       	push	r21
    1640:	6f 93       	push	r22
    1642:	7f 93       	push	r23
    1644:	8f 93       	push	r24
    1646:	9f 93       	push	r25
    1648:	af 93       	push	r26
    164a:	bf 93       	push	r27
    164c:	ef 93       	push	r30
    164e:	ff 93       	push	r31
    1650:	80 91 93 00 	lds	r24, 0x0093
    1654:	90 91 94 00 	lds	r25, 0x0094
    1658:	01 96       	adiw	r24, 0x01	; 1
    165a:	90 93 94 00 	sts	0x0094, r25
    165e:	80 93 93 00 	sts	0x0093, r24
    1662:	20 91 8d 00 	lds	r18, 0x008D
    1666:	30 91 8e 00 	lds	r19, 0x008E
    166a:	82 17       	cp	r24, r18
    166c:	93 07       	cpc	r25, r19
    166e:	59 f4       	brne	.+22     	; 0x1686 <__vector_10+0x58>
    1670:	10 92 94 00 	sts	0x0094, r1
    1674:	10 92 93 00 	sts	0x0093, r1
    1678:	e0 91 91 00 	lds	r30, 0x0091
    167c:	f0 91 92 00 	lds	r31, 0x0092
    1680:	30 97       	sbiw	r30, 0x00	; 0
    1682:	09 f0       	breq	.+2      	; 0x1686 <__vector_10+0x58>
    1684:	09 95       	icall
    1686:	ff 91       	pop	r31
    1688:	ef 91       	pop	r30
    168a:	bf 91       	pop	r27
    168c:	af 91       	pop	r26
    168e:	9f 91       	pop	r25
    1690:	8f 91       	pop	r24
    1692:	7f 91       	pop	r23
    1694:	6f 91       	pop	r22
    1696:	5f 91       	pop	r21
    1698:	4f 91       	pop	r20
    169a:	3f 91       	pop	r19
    169c:	2f 91       	pop	r18
    169e:	0f 90       	pop	r0
    16a0:	0f be       	out	0x3f, r0	; 63
    16a2:	0f 90       	pop	r0
    16a4:	1f 90       	pop	r1
    16a6:	18 95       	reti

000016a8 <TMR1_init>:
    16a8:	8f b5       	in	r24, 0x2f	; 47
    16aa:	8e 7f       	andi	r24, 0xFE	; 254
    16ac:	8f bd       	out	0x2f, r24	; 47
    16ae:	8f b5       	in	r24, 0x2f	; 47
    16b0:	82 60       	ori	r24, 0x02	; 2
    16b2:	8f bd       	out	0x2f, r24	; 47
    16b4:	8e b5       	in	r24, 0x2e	; 46
    16b6:	88 60       	ori	r24, 0x08	; 8
    16b8:	8e bd       	out	0x2e, r24	; 46
    16ba:	8e b5       	in	r24, 0x2e	; 46
    16bc:	80 61       	ori	r24, 0x10	; 16
    16be:	8e bd       	out	0x2e, r24	; 46
    16c0:	8f b5       	in	r24, 0x2f	; 47
    16c2:	8f 7b       	andi	r24, 0xBF	; 191
    16c4:	8f bd       	out	0x2f, r24	; 47
    16c6:	8f b5       	in	r24, 0x2f	; 47
    16c8:	80 68       	ori	r24, 0x80	; 128
    16ca:	8f bd       	out	0x2f, r24	; 47
    16cc:	8f b5       	in	r24, 0x2f	; 47
    16ce:	8f 7e       	andi	r24, 0xEF	; 239
    16d0:	8f bd       	out	0x2f, r24	; 47
    16d2:	8f b5       	in	r24, 0x2f	; 47
    16d4:	80 62       	ori	r24, 0x20	; 32
    16d6:	8f bd       	out	0x2f, r24	; 47
    16d8:	08 95       	ret

000016da <TMR1_Start>:
    16da:	8e b5       	in	r24, 0x2e	; 46
    16dc:	81 60       	ori	r24, 0x01	; 1
    16de:	8e bd       	out	0x2e, r24	; 46
    16e0:	8e b5       	in	r24, 0x2e	; 46
    16e2:	82 60       	ori	r24, 0x02	; 2
    16e4:	8e bd       	out	0x2e, r24	; 46
    16e6:	8e b5       	in	r24, 0x2e	; 46
    16e8:	8b 7f       	andi	r24, 0xFB	; 251
    16ea:	8e bd       	out	0x2e, r24	; 46
    16ec:	08 95       	ret

000016ee <TMR1_Stop>:
    16ee:	8e b5       	in	r24, 0x2e	; 46
    16f0:	8e 7f       	andi	r24, 0xFE	; 254
    16f2:	8e bd       	out	0x2e, r24	; 46
    16f4:	8e b5       	in	r24, 0x2e	; 46
    16f6:	8d 7f       	andi	r24, 0xFD	; 253
    16f8:	8e bd       	out	0x2e, r24	; 46
    16fa:	8e b5       	in	r24, 0x2e	; 46
    16fc:	8b 7f       	andi	r24, 0xFB	; 251
    16fe:	8e bd       	out	0x2e, r24	; 46
    1700:	08 95       	ret

00001702 <TMR1_SetDutyCycle_And_Freq_Value>:
    1702:	cf 92       	push	r12
    1704:	df 92       	push	r13
    1706:	ef 92       	push	r14
    1708:	ff 92       	push	r15
    170a:	cf 93       	push	r28
    170c:	df 93       	push	r29
    170e:	ec 01       	movw	r28, r24
    1710:	6a 01       	movw	r12, r20
    1712:	7b 01       	movw	r14, r22
    1714:	cb 01       	movw	r24, r22
    1716:	ba 01       	movw	r22, r20
    1718:	20 e0       	ldi	r18, 0x00	; 0
    171a:	30 e0       	ldi	r19, 0x00	; 0
    171c:	48 ec       	ldi	r20, 0xC8	; 200
    171e:	52 e4       	ldi	r21, 0x42	; 66
    1720:	0e 94 c4 0d 	call	0x1b88	; 0x1b88 <__cmpsf2>
    1724:	18 16       	cp	r1, r24
    1726:	5c f1       	brlt	.+86     	; 0x177e <TMR1_SetDutyCycle_And_Freq_Value+0x7c>
    1728:	9e 01       	movw	r18, r28
    172a:	40 e0       	ldi	r20, 0x00	; 0
    172c:	50 e0       	ldi	r21, 0x00	; 0
    172e:	60 e9       	ldi	r22, 0x90	; 144
    1730:	70 ed       	ldi	r23, 0xD0	; 208
    1732:	83 e0       	ldi	r24, 0x03	; 3
    1734:	90 e0       	ldi	r25, 0x00	; 0
    1736:	0e 94 88 0f 	call	0x1f10	; 0x1f10 <__udivmodsi4>
    173a:	21 50       	subi	r18, 0x01	; 1
    173c:	30 40       	sbci	r19, 0x00	; 0
    173e:	37 bd       	out	0x27, r19	; 39
    1740:	26 bd       	out	0x26, r18	; 38
    1742:	66 b5       	in	r22, 0x26	; 38
    1744:	77 b5       	in	r23, 0x27	; 39
    1746:	6f 5f       	subi	r22, 0xFF	; 255
    1748:	7f 4f       	sbci	r23, 0xFF	; 255
    174a:	80 e0       	ldi	r24, 0x00	; 0
    174c:	90 e0       	ldi	r25, 0x00	; 0
    174e:	0e 94 5c 0e 	call	0x1cb8	; 0x1cb8 <__floatunsisf>
    1752:	a7 01       	movw	r20, r14
    1754:	96 01       	movw	r18, r12
    1756:	0e 94 12 0f 	call	0x1e24	; 0x1e24 <__mulsf3>
    175a:	20 e0       	ldi	r18, 0x00	; 0
    175c:	30 e0       	ldi	r19, 0x00	; 0
    175e:	48 ec       	ldi	r20, 0xC8	; 200
    1760:	52 e4       	ldi	r21, 0x42	; 66
    1762:	0e 94 c8 0d 	call	0x1b90	; 0x1b90 <__divsf3>
    1766:	20 e0       	ldi	r18, 0x00	; 0
    1768:	30 e0       	ldi	r19, 0x00	; 0
    176a:	40 e8       	ldi	r20, 0x80	; 128
    176c:	5f e3       	ldi	r21, 0x3F	; 63
    176e:	0e 94 5f 0d 	call	0x1abe	; 0x1abe <__subsf3>
    1772:	0e 94 30 0e 	call	0x1c60	; 0x1c60 <__fixunssfsi>
    1776:	dc 01       	movw	r26, r24
    1778:	cb 01       	movw	r24, r22
    177a:	9b bd       	out	0x2b, r25	; 43
    177c:	8a bd       	out	0x2a, r24	; 42
    177e:	df 91       	pop	r29
    1780:	cf 91       	pop	r28
    1782:	ff 90       	pop	r15
    1784:	ef 90       	pop	r14
    1786:	df 90       	pop	r13
    1788:	cf 90       	pop	r12
    178a:	08 95       	ret

0000178c <TMR2_init>:
    178c:	85 b5       	in	r24, 0x25	; 37
    178e:	80 64       	ori	r24, 0x40	; 64
    1790:	85 bd       	out	0x25, r24	; 37
    1792:	85 b5       	in	r24, 0x25	; 37
    1794:	87 7f       	andi	r24, 0xF7	; 247
    1796:	85 bd       	out	0x25, r24	; 37
    1798:	85 b5       	in	r24, 0x25	; 37
    179a:	80 61       	ori	r24, 0x10	; 16
    179c:	85 bd       	out	0x25, r24	; 37
    179e:	85 b5       	in	r24, 0x25	; 37
    17a0:	80 62       	ori	r24, 0x20	; 32
    17a2:	85 bd       	out	0x25, r24	; 37
    17a4:	08 95       	ret

000017a6 <TMR2_Start>:
    17a6:	85 b5       	in	r24, 0x25	; 37
    17a8:	8e 7f       	andi	r24, 0xFE	; 254
    17aa:	85 bd       	out	0x25, r24	; 37
    17ac:	85 b5       	in	r24, 0x25	; 37
    17ae:	8d 7f       	andi	r24, 0xFD	; 253
    17b0:	85 bd       	out	0x25, r24	; 37
    17b2:	85 b5       	in	r24, 0x25	; 37
    17b4:	84 60       	ori	r24, 0x04	; 4
    17b6:	85 bd       	out	0x25, r24	; 37
    17b8:	08 95       	ret

000017ba <TMR2_Stop>:
    17ba:	85 b5       	in	r24, 0x25	; 37
    17bc:	8e 7f       	andi	r24, 0xFE	; 254
    17be:	85 bd       	out	0x25, r24	; 37
    17c0:	85 b5       	in	r24, 0x25	; 37
    17c2:	8d 7f       	andi	r24, 0xFD	; 253
    17c4:	85 bd       	out	0x25, r24	; 37
    17c6:	85 b5       	in	r24, 0x25	; 37
    17c8:	8b 7f       	andi	r24, 0xFB	; 251
    17ca:	85 bd       	out	0x25, r24	; 37
    17cc:	08 95       	ret

000017ce <TMR2_SetDelay_ms_UsingCTC>:
    17ce:	29 ef       	ldi	r18, 0xF9	; 249
    17d0:	23 bd       	out	0x23, r18	; 35
    17d2:	90 93 96 00 	sts	0x0096, r25
    17d6:	80 93 95 00 	sts	0x0095, r24
    17da:	08 95       	ret

000017dc <TMR2_SetDutyCycleValue_FastPWM>:
    17dc:	20 e0       	ldi	r18, 0x00	; 0
    17de:	30 e0       	ldi	r19, 0x00	; 0
    17e0:	48 ec       	ldi	r20, 0xC8	; 200
    17e2:	52 e4       	ldi	r21, 0x42	; 66
    17e4:	0e 94 c8 0d 	call	0x1b90	; 0x1b90 <__divsf3>
    17e8:	20 e0       	ldi	r18, 0x00	; 0
    17ea:	30 e0       	ldi	r19, 0x00	; 0
    17ec:	40 e8       	ldi	r20, 0x80	; 128
    17ee:	53 e4       	ldi	r21, 0x43	; 67
    17f0:	0e 94 12 0f 	call	0x1e24	; 0x1e24 <__mulsf3>
    17f4:	9b 01       	movw	r18, r22
    17f6:	ac 01       	movw	r20, r24
    17f8:	60 e0       	ldi	r22, 0x00	; 0
    17fa:	70 e0       	ldi	r23, 0x00	; 0
    17fc:	8f e7       	ldi	r24, 0x7F	; 127
    17fe:	93 e4       	ldi	r25, 0x43	; 67
    1800:	0e 94 5f 0d 	call	0x1abe	; 0x1abe <__subsf3>
    1804:	0e 94 30 0e 	call	0x1c60	; 0x1c60 <__fixunssfsi>
    1808:	63 bd       	out	0x23, r22	; 35
    180a:	08 95       	ret

0000180c <TMR2_SetDutyCycleValue_PhaseCorrect>:
    180c:	20 e0       	ldi	r18, 0x00	; 0
    180e:	30 e0       	ldi	r19, 0x00	; 0
    1810:	48 ec       	ldi	r20, 0xC8	; 200
    1812:	52 e4       	ldi	r21, 0x42	; 66
    1814:	0e 94 c8 0d 	call	0x1b90	; 0x1b90 <__divsf3>
    1818:	20 e0       	ldi	r18, 0x00	; 0
    181a:	30 e0       	ldi	r19, 0x00	; 0
    181c:	40 e8       	ldi	r20, 0x80	; 128
    181e:	53 e4       	ldi	r21, 0x43	; 67
    1820:	0e 94 12 0f 	call	0x1e24	; 0x1e24 <__mulsf3>
    1824:	9b 01       	movw	r18, r22
    1826:	ac 01       	movw	r20, r24
    1828:	60 e0       	ldi	r22, 0x00	; 0
    182a:	70 e0       	ldi	r23, 0x00	; 0
    182c:	80 e8       	ldi	r24, 0x80	; 128
    182e:	93 e4       	ldi	r25, 0x43	; 67
    1830:	0e 94 5f 0d 	call	0x1abe	; 0x1abe <__subsf3>
    1834:	0e 94 30 0e 	call	0x1c60	; 0x1c60 <__fixunssfsi>
    1838:	63 bd       	out	0x23, r22	; 35
    183a:	08 95       	ret

0000183c <TMR2_SetCallBackOverFlow>:
    183c:	00 97       	sbiw	r24, 0x00	; 0
    183e:	21 f0       	breq	.+8      	; 0x1848 <TMR2_SetCallBackOverFlow+0xc>
    1840:	90 93 98 00 	sts	0x0098, r25
    1844:	80 93 97 00 	sts	0x0097, r24
    1848:	08 95       	ret

0000184a <TMR2_SetCallBackCTC>:
    184a:	00 97       	sbiw	r24, 0x00	; 0
    184c:	21 f0       	breq	.+8      	; 0x1856 <TMR2_SetCallBackCTC+0xc>
    184e:	90 93 9a 00 	sts	0x009A, r25
    1852:	80 93 99 00 	sts	0x0099, r24
    1856:	08 95       	ret

00001858 <__vector_5>:
    1858:	1f 92       	push	r1
    185a:	0f 92       	push	r0
    185c:	0f b6       	in	r0, 0x3f	; 63
    185e:	0f 92       	push	r0
    1860:	11 24       	eor	r1, r1
    1862:	2f 93       	push	r18
    1864:	3f 93       	push	r19
    1866:	4f 93       	push	r20
    1868:	5f 93       	push	r21
    186a:	6f 93       	push	r22
    186c:	7f 93       	push	r23
    186e:	8f 93       	push	r24
    1870:	9f 93       	push	r25
    1872:	af 93       	push	r26
    1874:	bf 93       	push	r27
    1876:	ef 93       	push	r30
    1878:	ff 93       	push	r31
    187a:	80 91 9b 00 	lds	r24, 0x009B
    187e:	90 91 9c 00 	lds	r25, 0x009C
    1882:	01 96       	adiw	r24, 0x01	; 1
    1884:	90 93 9c 00 	sts	0x009C, r25
    1888:	80 93 9b 00 	sts	0x009B, r24
    188c:	23 e0       	ldi	r18, 0x03	; 3
    188e:	81 3d       	cpi	r24, 0xD1	; 209
    1890:	92 07       	cpc	r25, r18
    1892:	69 f4       	brne	.+26     	; 0x18ae <__vector_5+0x56>
    1894:	10 92 9c 00 	sts	0x009C, r1
    1898:	10 92 9b 00 	sts	0x009B, r1
    189c:	81 e7       	ldi	r24, 0x71	; 113
    189e:	84 bd       	out	0x24, r24	; 36
    18a0:	e0 91 97 00 	lds	r30, 0x0097
    18a4:	f0 91 98 00 	lds	r31, 0x0098
    18a8:	30 97       	sbiw	r30, 0x00	; 0
    18aa:	09 f0       	breq	.+2      	; 0x18ae <__vector_5+0x56>
    18ac:	09 95       	icall
    18ae:	ff 91       	pop	r31
    18b0:	ef 91       	pop	r30
    18b2:	bf 91       	pop	r27
    18b4:	af 91       	pop	r26
    18b6:	9f 91       	pop	r25
    18b8:	8f 91       	pop	r24
    18ba:	7f 91       	pop	r23
    18bc:	6f 91       	pop	r22
    18be:	5f 91       	pop	r21
    18c0:	4f 91       	pop	r20
    18c2:	3f 91       	pop	r19
    18c4:	2f 91       	pop	r18
    18c6:	0f 90       	pop	r0
    18c8:	0f be       	out	0x3f, r0	; 63
    18ca:	0f 90       	pop	r0
    18cc:	1f 90       	pop	r1
    18ce:	18 95       	reti

000018d0 <__vector_4>:
    18d0:	1f 92       	push	r1
    18d2:	0f 92       	push	r0
    18d4:	0f b6       	in	r0, 0x3f	; 63
    18d6:	0f 92       	push	r0
    18d8:	11 24       	eor	r1, r1
    18da:	2f 93       	push	r18
    18dc:	3f 93       	push	r19
    18de:	4f 93       	push	r20
    18e0:	5f 93       	push	r21
    18e2:	6f 93       	push	r22
    18e4:	7f 93       	push	r23
    18e6:	8f 93       	push	r24
    18e8:	9f 93       	push	r25
    18ea:	af 93       	push	r26
    18ec:	bf 93       	push	r27
    18ee:	ef 93       	push	r30
    18f0:	ff 93       	push	r31
    18f2:	80 91 9d 00 	lds	r24, 0x009D
    18f6:	90 91 9e 00 	lds	r25, 0x009E
    18fa:	01 96       	adiw	r24, 0x01	; 1
    18fc:	90 93 9e 00 	sts	0x009E, r25
    1900:	80 93 9d 00 	sts	0x009D, r24
    1904:	20 91 95 00 	lds	r18, 0x0095
    1908:	30 91 96 00 	lds	r19, 0x0096
    190c:	82 17       	cp	r24, r18
    190e:	93 07       	cpc	r25, r19
    1910:	59 f4       	brne	.+22     	; 0x1928 <__vector_4+0x58>
    1912:	10 92 9e 00 	sts	0x009E, r1
    1916:	10 92 9d 00 	sts	0x009D, r1
    191a:	e0 91 99 00 	lds	r30, 0x0099
    191e:	f0 91 9a 00 	lds	r31, 0x009A
    1922:	30 97       	sbiw	r30, 0x00	; 0
    1924:	09 f0       	breq	.+2      	; 0x1928 <__vector_4+0x58>
    1926:	09 95       	icall
    1928:	ff 91       	pop	r31
    192a:	ef 91       	pop	r30
    192c:	bf 91       	pop	r27
    192e:	af 91       	pop	r26
    1930:	9f 91       	pop	r25
    1932:	8f 91       	pop	r24
    1934:	7f 91       	pop	r23
    1936:	6f 91       	pop	r22
    1938:	5f 91       	pop	r21
    193a:	4f 91       	pop	r20
    193c:	3f 91       	pop	r19
    193e:	2f 91       	pop	r18
    1940:	0f 90       	pop	r0
    1942:	0f be       	out	0x3f, r0	; 63
    1944:	0f 90       	pop	r0
    1946:	1f 90       	pop	r1
    1948:	18 95       	reti

0000194a <UART_init>:
    194a:	52 98       	cbi	0x0a, 2	; 10
    194c:	86 e8       	ldi	r24, 0x86	; 134
    194e:	80 bd       	out	0x20, r24	; 32
    1950:	87 e6       	ldi	r24, 0x67	; 103
    1952:	89 b9       	out	0x09, r24	; 9
    1954:	10 bc       	out	0x20, r1	; 32
    1956:	59 98       	cbi	0x0b, 1	; 11
    1958:	57 9a       	sbi	0x0a, 7	; 10
    195a:	56 9a       	sbi	0x0a, 6	; 10
    195c:	55 9a       	sbi	0x0a, 5	; 10
    195e:	53 9a       	sbi	0x0a, 3	; 10
    1960:	54 9a       	sbi	0x0a, 4	; 10
    1962:	08 95       	ret

00001964 <UART_ReceiveChar>:
    1964:	00 97       	sbiw	r24, 0x00	; 0
    1966:	29 f0       	breq	.+10     	; 0x1972 <UART_ReceiveChar+0xe>
    1968:	5f 9b       	sbis	0x0b, 7	; 11
    196a:	fe cf       	rjmp	.-4      	; 0x1968 <UART_ReceiveChar+0x4>
    196c:	2c b1       	in	r18, 0x0c	; 12
    196e:	fc 01       	movw	r30, r24
    1970:	20 83       	st	Z, r18
    1972:	08 95       	ret

00001974 <UART_TransmiteChar>:
    1974:	8c b9       	out	0x0c, r24	; 12
    1976:	8b b1       	in	r24, 0x0b	; 11
    1978:	85 ff       	sbrs	r24, 5
    197a:	fd cf       	rjmp	.-6      	; 0x1976 <UART_TransmiteChar+0x2>
    197c:	08 95       	ret

0000197e <UART_TransmiteString>:
    197e:	0f 93       	push	r16
    1980:	1f 93       	push	r17
    1982:	cf 93       	push	r28
    1984:	8c 01       	movw	r16, r24
    1986:	fc 01       	movw	r30, r24
    1988:	80 81       	ld	r24, Z
    198a:	88 23       	and	r24, r24
    198c:	51 f0       	breq	.+20     	; 0x19a2 <UART_TransmiteString+0x24>
    198e:	c0 e0       	ldi	r28, 0x00	; 0
    1990:	0e 94 ba 0c 	call	0x1974	; 0x1974 <UART_TransmiteChar>
    1994:	cf 5f       	subi	r28, 0xFF	; 255
    1996:	f8 01       	movw	r30, r16
    1998:	ec 0f       	add	r30, r28
    199a:	f1 1d       	adc	r31, r1
    199c:	80 81       	ld	r24, Z
    199e:	88 23       	and	r24, r24
    19a0:	b9 f7       	brne	.-18     	; 0x1990 <UART_TransmiteString+0x12>
    19a2:	cf 91       	pop	r28
    19a4:	1f 91       	pop	r17
    19a6:	0f 91       	pop	r16
    19a8:	08 95       	ret

000019aa <UART_CallBack_RXC>:
    19aa:	90 93 a0 00 	sts	0x00A0, r25
    19ae:	80 93 9f 00 	sts	0x009F, r24
    19b2:	08 95       	ret

000019b4 <UART_CallBack_UDRE>:
    19b4:	90 93 a2 00 	sts	0x00A2, r25
    19b8:	80 93 a1 00 	sts	0x00A1, r24
    19bc:	08 95       	ret

000019be <UART_CallBack_TXC>:
    19be:	90 93 a4 00 	sts	0x00A4, r25
    19c2:	80 93 a3 00 	sts	0x00A3, r24
    19c6:	08 95       	ret

000019c8 <__vector_13>:
    19c8:	1f 92       	push	r1
    19ca:	0f 92       	push	r0
    19cc:	0f b6       	in	r0, 0x3f	; 63
    19ce:	0f 92       	push	r0
    19d0:	11 24       	eor	r1, r1
    19d2:	2f 93       	push	r18
    19d4:	3f 93       	push	r19
    19d6:	4f 93       	push	r20
    19d8:	5f 93       	push	r21
    19da:	6f 93       	push	r22
    19dc:	7f 93       	push	r23
    19de:	8f 93       	push	r24
    19e0:	9f 93       	push	r25
    19e2:	af 93       	push	r26
    19e4:	bf 93       	push	r27
    19e6:	ef 93       	push	r30
    19e8:	ff 93       	push	r31
    19ea:	e0 91 9f 00 	lds	r30, 0x009F
    19ee:	f0 91 a0 00 	lds	r31, 0x00A0
    19f2:	30 97       	sbiw	r30, 0x00	; 0
    19f4:	09 f0       	breq	.+2      	; 0x19f8 <__vector_13+0x30>
    19f6:	09 95       	icall
    19f8:	ff 91       	pop	r31
    19fa:	ef 91       	pop	r30
    19fc:	bf 91       	pop	r27
    19fe:	af 91       	pop	r26
    1a00:	9f 91       	pop	r25
    1a02:	8f 91       	pop	r24
    1a04:	7f 91       	pop	r23
    1a06:	6f 91       	pop	r22
    1a08:	5f 91       	pop	r21
    1a0a:	4f 91       	pop	r20
    1a0c:	3f 91       	pop	r19
    1a0e:	2f 91       	pop	r18
    1a10:	0f 90       	pop	r0
    1a12:	0f be       	out	0x3f, r0	; 63
    1a14:	0f 90       	pop	r0
    1a16:	1f 90       	pop	r1
    1a18:	18 95       	reti

00001a1a <__vector_14>:
    1a1a:	1f 92       	push	r1
    1a1c:	0f 92       	push	r0
    1a1e:	0f b6       	in	r0, 0x3f	; 63
    1a20:	0f 92       	push	r0
    1a22:	11 24       	eor	r1, r1
    1a24:	2f 93       	push	r18
    1a26:	3f 93       	push	r19
    1a28:	4f 93       	push	r20
    1a2a:	5f 93       	push	r21
    1a2c:	6f 93       	push	r22
    1a2e:	7f 93       	push	r23
    1a30:	8f 93       	push	r24
    1a32:	9f 93       	push	r25
    1a34:	af 93       	push	r26
    1a36:	bf 93       	push	r27
    1a38:	ef 93       	push	r30
    1a3a:	ff 93       	push	r31
    1a3c:	e0 91 a1 00 	lds	r30, 0x00A1
    1a40:	f0 91 a2 00 	lds	r31, 0x00A2
    1a44:	30 97       	sbiw	r30, 0x00	; 0
    1a46:	09 f0       	breq	.+2      	; 0x1a4a <__vector_14+0x30>
    1a48:	09 95       	icall
    1a4a:	ff 91       	pop	r31
    1a4c:	ef 91       	pop	r30
    1a4e:	bf 91       	pop	r27
    1a50:	af 91       	pop	r26
    1a52:	9f 91       	pop	r25
    1a54:	8f 91       	pop	r24
    1a56:	7f 91       	pop	r23
    1a58:	6f 91       	pop	r22
    1a5a:	5f 91       	pop	r21
    1a5c:	4f 91       	pop	r20
    1a5e:	3f 91       	pop	r19
    1a60:	2f 91       	pop	r18
    1a62:	0f 90       	pop	r0
    1a64:	0f be       	out	0x3f, r0	; 63
    1a66:	0f 90       	pop	r0
    1a68:	1f 90       	pop	r1
    1a6a:	18 95       	reti

00001a6c <__vector_15>:
    1a6c:	1f 92       	push	r1
    1a6e:	0f 92       	push	r0
    1a70:	0f b6       	in	r0, 0x3f	; 63
    1a72:	0f 92       	push	r0
    1a74:	11 24       	eor	r1, r1
    1a76:	2f 93       	push	r18
    1a78:	3f 93       	push	r19
    1a7a:	4f 93       	push	r20
    1a7c:	5f 93       	push	r21
    1a7e:	6f 93       	push	r22
    1a80:	7f 93       	push	r23
    1a82:	8f 93       	push	r24
    1a84:	9f 93       	push	r25
    1a86:	af 93       	push	r26
    1a88:	bf 93       	push	r27
    1a8a:	ef 93       	push	r30
    1a8c:	ff 93       	push	r31
    1a8e:	e0 91 a3 00 	lds	r30, 0x00A3
    1a92:	f0 91 a4 00 	lds	r31, 0x00A4
    1a96:	30 97       	sbiw	r30, 0x00	; 0
    1a98:	09 f0       	breq	.+2      	; 0x1a9c <__vector_15+0x30>
    1a9a:	09 95       	icall
    1a9c:	ff 91       	pop	r31
    1a9e:	ef 91       	pop	r30
    1aa0:	bf 91       	pop	r27
    1aa2:	af 91       	pop	r26
    1aa4:	9f 91       	pop	r25
    1aa6:	8f 91       	pop	r24
    1aa8:	7f 91       	pop	r23
    1aaa:	6f 91       	pop	r22
    1aac:	5f 91       	pop	r21
    1aae:	4f 91       	pop	r20
    1ab0:	3f 91       	pop	r19
    1ab2:	2f 91       	pop	r18
    1ab4:	0f 90       	pop	r0
    1ab6:	0f be       	out	0x3f, r0	; 63
    1ab8:	0f 90       	pop	r0
    1aba:	1f 90       	pop	r1
    1abc:	18 95       	reti

00001abe <__subsf3>:
    1abe:	50 58       	subi	r21, 0x80	; 128

00001ac0 <__addsf3>:
    1ac0:	bb 27       	eor	r27, r27
    1ac2:	aa 27       	eor	r26, r26
    1ac4:	0e d0       	rcall	.+28     	; 0x1ae2 <__addsf3x>
    1ac6:	70 c1       	rjmp	.+736    	; 0x1da8 <__fp_round>
    1ac8:	61 d1       	rcall	.+706    	; 0x1d8c <__fp_pscA>
    1aca:	30 f0       	brcs	.+12     	; 0x1ad8 <__addsf3+0x18>
    1acc:	66 d1       	rcall	.+716    	; 0x1d9a <__fp_pscB>
    1ace:	20 f0       	brcs	.+8      	; 0x1ad8 <__addsf3+0x18>
    1ad0:	31 f4       	brne	.+12     	; 0x1ade <__addsf3+0x1e>
    1ad2:	9f 3f       	cpi	r25, 0xFF	; 255
    1ad4:	11 f4       	brne	.+4      	; 0x1ada <__addsf3+0x1a>
    1ad6:	1e f4       	brtc	.+6      	; 0x1ade <__addsf3+0x1e>
    1ad8:	56 c1       	rjmp	.+684    	; 0x1d86 <__fp_nan>
    1ada:	0e f4       	brtc	.+2      	; 0x1ade <__addsf3+0x1e>
    1adc:	e0 95       	com	r30
    1ade:	e7 fb       	bst	r30, 7
    1ae0:	4c c1       	rjmp	.+664    	; 0x1d7a <__fp_inf>

00001ae2 <__addsf3x>:
    1ae2:	e9 2f       	mov	r30, r25
    1ae4:	72 d1       	rcall	.+740    	; 0x1dca <__fp_split3>
    1ae6:	80 f3       	brcs	.-32     	; 0x1ac8 <__addsf3+0x8>
    1ae8:	ba 17       	cp	r27, r26
    1aea:	62 07       	cpc	r22, r18
    1aec:	73 07       	cpc	r23, r19
    1aee:	84 07       	cpc	r24, r20
    1af0:	95 07       	cpc	r25, r21
    1af2:	18 f0       	brcs	.+6      	; 0x1afa <__addsf3x+0x18>
    1af4:	71 f4       	brne	.+28     	; 0x1b12 <__addsf3x+0x30>
    1af6:	9e f5       	brtc	.+102    	; 0x1b5e <__addsf3x+0x7c>
    1af8:	8a c1       	rjmp	.+788    	; 0x1e0e <__fp_zero>
    1afa:	0e f4       	brtc	.+2      	; 0x1afe <__addsf3x+0x1c>
    1afc:	e0 95       	com	r30
    1afe:	0b 2e       	mov	r0, r27
    1b00:	ba 2f       	mov	r27, r26
    1b02:	a0 2d       	mov	r26, r0
    1b04:	0b 01       	movw	r0, r22
    1b06:	b9 01       	movw	r22, r18
    1b08:	90 01       	movw	r18, r0
    1b0a:	0c 01       	movw	r0, r24
    1b0c:	ca 01       	movw	r24, r20
    1b0e:	a0 01       	movw	r20, r0
    1b10:	11 24       	eor	r1, r1
    1b12:	ff 27       	eor	r31, r31
    1b14:	59 1b       	sub	r21, r25
    1b16:	99 f0       	breq	.+38     	; 0x1b3e <__addsf3x+0x5c>
    1b18:	59 3f       	cpi	r21, 0xF9	; 249
    1b1a:	50 f4       	brcc	.+20     	; 0x1b30 <__addsf3x+0x4e>
    1b1c:	50 3e       	cpi	r21, 0xE0	; 224
    1b1e:	68 f1       	brcs	.+90     	; 0x1b7a <__addsf3x+0x98>
    1b20:	1a 16       	cp	r1, r26
    1b22:	f0 40       	sbci	r31, 0x00	; 0
    1b24:	a2 2f       	mov	r26, r18
    1b26:	23 2f       	mov	r18, r19
    1b28:	34 2f       	mov	r19, r20
    1b2a:	44 27       	eor	r20, r20
    1b2c:	58 5f       	subi	r21, 0xF8	; 248
    1b2e:	f3 cf       	rjmp	.-26     	; 0x1b16 <__addsf3x+0x34>
    1b30:	46 95       	lsr	r20
    1b32:	37 95       	ror	r19
    1b34:	27 95       	ror	r18
    1b36:	a7 95       	ror	r26
    1b38:	f0 40       	sbci	r31, 0x00	; 0
    1b3a:	53 95       	inc	r21
    1b3c:	c9 f7       	brne	.-14     	; 0x1b30 <__addsf3x+0x4e>
    1b3e:	7e f4       	brtc	.+30     	; 0x1b5e <__addsf3x+0x7c>
    1b40:	1f 16       	cp	r1, r31
    1b42:	ba 0b       	sbc	r27, r26
    1b44:	62 0b       	sbc	r22, r18
    1b46:	73 0b       	sbc	r23, r19
    1b48:	84 0b       	sbc	r24, r20
    1b4a:	ba f0       	brmi	.+46     	; 0x1b7a <__addsf3x+0x98>
    1b4c:	91 50       	subi	r25, 0x01	; 1
    1b4e:	a1 f0       	breq	.+40     	; 0x1b78 <__addsf3x+0x96>
    1b50:	ff 0f       	add	r31, r31
    1b52:	bb 1f       	adc	r27, r27
    1b54:	66 1f       	adc	r22, r22
    1b56:	77 1f       	adc	r23, r23
    1b58:	88 1f       	adc	r24, r24
    1b5a:	c2 f7       	brpl	.-16     	; 0x1b4c <__addsf3x+0x6a>
    1b5c:	0e c0       	rjmp	.+28     	; 0x1b7a <__addsf3x+0x98>
    1b5e:	ba 0f       	add	r27, r26
    1b60:	62 1f       	adc	r22, r18
    1b62:	73 1f       	adc	r23, r19
    1b64:	84 1f       	adc	r24, r20
    1b66:	48 f4       	brcc	.+18     	; 0x1b7a <__addsf3x+0x98>
    1b68:	87 95       	ror	r24
    1b6a:	77 95       	ror	r23
    1b6c:	67 95       	ror	r22
    1b6e:	b7 95       	ror	r27
    1b70:	f7 95       	ror	r31
    1b72:	9e 3f       	cpi	r25, 0xFE	; 254
    1b74:	08 f0       	brcs	.+2      	; 0x1b78 <__addsf3x+0x96>
    1b76:	b3 cf       	rjmp	.-154    	; 0x1ade <__addsf3+0x1e>
    1b78:	93 95       	inc	r25
    1b7a:	88 0f       	add	r24, r24
    1b7c:	08 f0       	brcs	.+2      	; 0x1b80 <__addsf3x+0x9e>
    1b7e:	99 27       	eor	r25, r25
    1b80:	ee 0f       	add	r30, r30
    1b82:	97 95       	ror	r25
    1b84:	87 95       	ror	r24
    1b86:	08 95       	ret

00001b88 <__cmpsf2>:
    1b88:	d4 d0       	rcall	.+424    	; 0x1d32 <__fp_cmp>
    1b8a:	08 f4       	brcc	.+2      	; 0x1b8e <__cmpsf2+0x6>
    1b8c:	81 e0       	ldi	r24, 0x01	; 1
    1b8e:	08 95       	ret

00001b90 <__divsf3>:
    1b90:	0c d0       	rcall	.+24     	; 0x1baa <__divsf3x>
    1b92:	0a c1       	rjmp	.+532    	; 0x1da8 <__fp_round>
    1b94:	02 d1       	rcall	.+516    	; 0x1d9a <__fp_pscB>
    1b96:	40 f0       	brcs	.+16     	; 0x1ba8 <__divsf3+0x18>
    1b98:	f9 d0       	rcall	.+498    	; 0x1d8c <__fp_pscA>
    1b9a:	30 f0       	brcs	.+12     	; 0x1ba8 <__divsf3+0x18>
    1b9c:	21 f4       	brne	.+8      	; 0x1ba6 <__divsf3+0x16>
    1b9e:	5f 3f       	cpi	r21, 0xFF	; 255
    1ba0:	19 f0       	breq	.+6      	; 0x1ba8 <__divsf3+0x18>
    1ba2:	eb c0       	rjmp	.+470    	; 0x1d7a <__fp_inf>
    1ba4:	51 11       	cpse	r21, r1
    1ba6:	34 c1       	rjmp	.+616    	; 0x1e10 <__fp_szero>
    1ba8:	ee c0       	rjmp	.+476    	; 0x1d86 <__fp_nan>

00001baa <__divsf3x>:
    1baa:	0f d1       	rcall	.+542    	; 0x1dca <__fp_split3>
    1bac:	98 f3       	brcs	.-26     	; 0x1b94 <__divsf3+0x4>

00001bae <__divsf3_pse>:
    1bae:	99 23       	and	r25, r25
    1bb0:	c9 f3       	breq	.-14     	; 0x1ba4 <__divsf3+0x14>
    1bb2:	55 23       	and	r21, r21
    1bb4:	b1 f3       	breq	.-20     	; 0x1ba2 <__divsf3+0x12>
    1bb6:	95 1b       	sub	r25, r21
    1bb8:	55 0b       	sbc	r21, r21
    1bba:	bb 27       	eor	r27, r27
    1bbc:	aa 27       	eor	r26, r26
    1bbe:	62 17       	cp	r22, r18
    1bc0:	73 07       	cpc	r23, r19
    1bc2:	84 07       	cpc	r24, r20
    1bc4:	38 f0       	brcs	.+14     	; 0x1bd4 <__divsf3_pse+0x26>
    1bc6:	9f 5f       	subi	r25, 0xFF	; 255
    1bc8:	5f 4f       	sbci	r21, 0xFF	; 255
    1bca:	22 0f       	add	r18, r18
    1bcc:	33 1f       	adc	r19, r19
    1bce:	44 1f       	adc	r20, r20
    1bd0:	aa 1f       	adc	r26, r26
    1bd2:	a9 f3       	breq	.-22     	; 0x1bbe <__divsf3_pse+0x10>
    1bd4:	33 d0       	rcall	.+102    	; 0x1c3c <__divsf3_pse+0x8e>
    1bd6:	0e 2e       	mov	r0, r30
    1bd8:	3a f0       	brmi	.+14     	; 0x1be8 <__divsf3_pse+0x3a>
    1bda:	e0 e8       	ldi	r30, 0x80	; 128
    1bdc:	30 d0       	rcall	.+96     	; 0x1c3e <__divsf3_pse+0x90>
    1bde:	91 50       	subi	r25, 0x01	; 1
    1be0:	50 40       	sbci	r21, 0x00	; 0
    1be2:	e6 95       	lsr	r30
    1be4:	00 1c       	adc	r0, r0
    1be6:	ca f7       	brpl	.-14     	; 0x1bda <__divsf3_pse+0x2c>
    1be8:	29 d0       	rcall	.+82     	; 0x1c3c <__divsf3_pse+0x8e>
    1bea:	fe 2f       	mov	r31, r30
    1bec:	27 d0       	rcall	.+78     	; 0x1c3c <__divsf3_pse+0x8e>
    1bee:	66 0f       	add	r22, r22
    1bf0:	77 1f       	adc	r23, r23
    1bf2:	88 1f       	adc	r24, r24
    1bf4:	bb 1f       	adc	r27, r27
    1bf6:	26 17       	cp	r18, r22
    1bf8:	37 07       	cpc	r19, r23
    1bfa:	48 07       	cpc	r20, r24
    1bfc:	ab 07       	cpc	r26, r27
    1bfe:	b0 e8       	ldi	r27, 0x80	; 128
    1c00:	09 f0       	breq	.+2      	; 0x1c04 <__divsf3_pse+0x56>
    1c02:	bb 0b       	sbc	r27, r27
    1c04:	80 2d       	mov	r24, r0
    1c06:	bf 01       	movw	r22, r30
    1c08:	ff 27       	eor	r31, r31
    1c0a:	93 58       	subi	r25, 0x83	; 131
    1c0c:	5f 4f       	sbci	r21, 0xFF	; 255
    1c0e:	2a f0       	brmi	.+10     	; 0x1c1a <__divsf3_pse+0x6c>
    1c10:	9e 3f       	cpi	r25, 0xFE	; 254
    1c12:	51 05       	cpc	r21, r1
    1c14:	68 f0       	brcs	.+26     	; 0x1c30 <__divsf3_pse+0x82>
    1c16:	b1 c0       	rjmp	.+354    	; 0x1d7a <__fp_inf>
    1c18:	fb c0       	rjmp	.+502    	; 0x1e10 <__fp_szero>
    1c1a:	5f 3f       	cpi	r21, 0xFF	; 255
    1c1c:	ec f3       	brlt	.-6      	; 0x1c18 <__divsf3_pse+0x6a>
    1c1e:	98 3e       	cpi	r25, 0xE8	; 232
    1c20:	dc f3       	brlt	.-10     	; 0x1c18 <__divsf3_pse+0x6a>
    1c22:	86 95       	lsr	r24
    1c24:	77 95       	ror	r23
    1c26:	67 95       	ror	r22
    1c28:	b7 95       	ror	r27
    1c2a:	f7 95       	ror	r31
    1c2c:	9f 5f       	subi	r25, 0xFF	; 255
    1c2e:	c9 f7       	brne	.-14     	; 0x1c22 <__divsf3_pse+0x74>
    1c30:	88 0f       	add	r24, r24
    1c32:	91 1d       	adc	r25, r1
    1c34:	96 95       	lsr	r25
    1c36:	87 95       	ror	r24
    1c38:	97 f9       	bld	r25, 7
    1c3a:	08 95       	ret
    1c3c:	e1 e0       	ldi	r30, 0x01	; 1
    1c3e:	66 0f       	add	r22, r22
    1c40:	77 1f       	adc	r23, r23
    1c42:	88 1f       	adc	r24, r24
    1c44:	bb 1f       	adc	r27, r27
    1c46:	62 17       	cp	r22, r18
    1c48:	73 07       	cpc	r23, r19
    1c4a:	84 07       	cpc	r24, r20
    1c4c:	ba 07       	cpc	r27, r26
    1c4e:	20 f0       	brcs	.+8      	; 0x1c58 <__divsf3_pse+0xaa>
    1c50:	62 1b       	sub	r22, r18
    1c52:	73 0b       	sbc	r23, r19
    1c54:	84 0b       	sbc	r24, r20
    1c56:	ba 0b       	sbc	r27, r26
    1c58:	ee 1f       	adc	r30, r30
    1c5a:	88 f7       	brcc	.-30     	; 0x1c3e <__divsf3_pse+0x90>
    1c5c:	e0 95       	com	r30
    1c5e:	08 95       	ret

00001c60 <__fixunssfsi>:
    1c60:	bc d0       	rcall	.+376    	; 0x1dda <__fp_splitA>
    1c62:	88 f0       	brcs	.+34     	; 0x1c86 <__fixunssfsi+0x26>
    1c64:	9f 57       	subi	r25, 0x7F	; 127
    1c66:	90 f0       	brcs	.+36     	; 0x1c8c <__fixunssfsi+0x2c>
    1c68:	b9 2f       	mov	r27, r25
    1c6a:	99 27       	eor	r25, r25
    1c6c:	b7 51       	subi	r27, 0x17	; 23
    1c6e:	a0 f0       	brcs	.+40     	; 0x1c98 <__fixunssfsi+0x38>
    1c70:	d1 f0       	breq	.+52     	; 0x1ca6 <__fixunssfsi+0x46>
    1c72:	66 0f       	add	r22, r22
    1c74:	77 1f       	adc	r23, r23
    1c76:	88 1f       	adc	r24, r24
    1c78:	99 1f       	adc	r25, r25
    1c7a:	1a f0       	brmi	.+6      	; 0x1c82 <__fixunssfsi+0x22>
    1c7c:	ba 95       	dec	r27
    1c7e:	c9 f7       	brne	.-14     	; 0x1c72 <__fixunssfsi+0x12>
    1c80:	12 c0       	rjmp	.+36     	; 0x1ca6 <__fixunssfsi+0x46>
    1c82:	b1 30       	cpi	r27, 0x01	; 1
    1c84:	81 f0       	breq	.+32     	; 0x1ca6 <__fixunssfsi+0x46>
    1c86:	c3 d0       	rcall	.+390    	; 0x1e0e <__fp_zero>
    1c88:	b1 e0       	ldi	r27, 0x01	; 1
    1c8a:	08 95       	ret
    1c8c:	c0 c0       	rjmp	.+384    	; 0x1e0e <__fp_zero>
    1c8e:	67 2f       	mov	r22, r23
    1c90:	78 2f       	mov	r23, r24
    1c92:	88 27       	eor	r24, r24
    1c94:	b8 5f       	subi	r27, 0xF8	; 248
    1c96:	39 f0       	breq	.+14     	; 0x1ca6 <__fixunssfsi+0x46>
    1c98:	b9 3f       	cpi	r27, 0xF9	; 249
    1c9a:	cc f3       	brlt	.-14     	; 0x1c8e <__fixunssfsi+0x2e>
    1c9c:	86 95       	lsr	r24
    1c9e:	77 95       	ror	r23
    1ca0:	67 95       	ror	r22
    1ca2:	b3 95       	inc	r27
    1ca4:	d9 f7       	brne	.-10     	; 0x1c9c <__fixunssfsi+0x3c>
    1ca6:	3e f4       	brtc	.+14     	; 0x1cb6 <__fixunssfsi+0x56>
    1ca8:	90 95       	com	r25
    1caa:	80 95       	com	r24
    1cac:	70 95       	com	r23
    1cae:	61 95       	neg	r22
    1cb0:	7f 4f       	sbci	r23, 0xFF	; 255
    1cb2:	8f 4f       	sbci	r24, 0xFF	; 255
    1cb4:	9f 4f       	sbci	r25, 0xFF	; 255
    1cb6:	08 95       	ret

00001cb8 <__floatunsisf>:
    1cb8:	e8 94       	clt
    1cba:	09 c0       	rjmp	.+18     	; 0x1cce <__floatsisf+0x12>

00001cbc <__floatsisf>:
    1cbc:	97 fb       	bst	r25, 7
    1cbe:	3e f4       	brtc	.+14     	; 0x1cce <__floatsisf+0x12>
    1cc0:	90 95       	com	r25
    1cc2:	80 95       	com	r24
    1cc4:	70 95       	com	r23
    1cc6:	61 95       	neg	r22
    1cc8:	7f 4f       	sbci	r23, 0xFF	; 255
    1cca:	8f 4f       	sbci	r24, 0xFF	; 255
    1ccc:	9f 4f       	sbci	r25, 0xFF	; 255
    1cce:	99 23       	and	r25, r25
    1cd0:	a9 f0       	breq	.+42     	; 0x1cfc <__floatsisf+0x40>
    1cd2:	f9 2f       	mov	r31, r25
    1cd4:	96 e9       	ldi	r25, 0x96	; 150
    1cd6:	bb 27       	eor	r27, r27
    1cd8:	93 95       	inc	r25
    1cda:	f6 95       	lsr	r31
    1cdc:	87 95       	ror	r24
    1cde:	77 95       	ror	r23
    1ce0:	67 95       	ror	r22
    1ce2:	b7 95       	ror	r27
    1ce4:	f1 11       	cpse	r31, r1
    1ce6:	f8 cf       	rjmp	.-16     	; 0x1cd8 <__floatsisf+0x1c>
    1ce8:	fa f4       	brpl	.+62     	; 0x1d28 <__floatsisf+0x6c>
    1cea:	bb 0f       	add	r27, r27
    1cec:	11 f4       	brne	.+4      	; 0x1cf2 <__floatsisf+0x36>
    1cee:	60 ff       	sbrs	r22, 0
    1cf0:	1b c0       	rjmp	.+54     	; 0x1d28 <__floatsisf+0x6c>
    1cf2:	6f 5f       	subi	r22, 0xFF	; 255
    1cf4:	7f 4f       	sbci	r23, 0xFF	; 255
    1cf6:	8f 4f       	sbci	r24, 0xFF	; 255
    1cf8:	9f 4f       	sbci	r25, 0xFF	; 255
    1cfa:	16 c0       	rjmp	.+44     	; 0x1d28 <__floatsisf+0x6c>
    1cfc:	88 23       	and	r24, r24
    1cfe:	11 f0       	breq	.+4      	; 0x1d04 <__floatsisf+0x48>
    1d00:	96 e9       	ldi	r25, 0x96	; 150
    1d02:	11 c0       	rjmp	.+34     	; 0x1d26 <__floatsisf+0x6a>
    1d04:	77 23       	and	r23, r23
    1d06:	21 f0       	breq	.+8      	; 0x1d10 <__floatsisf+0x54>
    1d08:	9e e8       	ldi	r25, 0x8E	; 142
    1d0a:	87 2f       	mov	r24, r23
    1d0c:	76 2f       	mov	r23, r22
    1d0e:	05 c0       	rjmp	.+10     	; 0x1d1a <__floatsisf+0x5e>
    1d10:	66 23       	and	r22, r22
    1d12:	71 f0       	breq	.+28     	; 0x1d30 <__floatsisf+0x74>
    1d14:	96 e8       	ldi	r25, 0x86	; 134
    1d16:	86 2f       	mov	r24, r22
    1d18:	70 e0       	ldi	r23, 0x00	; 0
    1d1a:	60 e0       	ldi	r22, 0x00	; 0
    1d1c:	2a f0       	brmi	.+10     	; 0x1d28 <__floatsisf+0x6c>
    1d1e:	9a 95       	dec	r25
    1d20:	66 0f       	add	r22, r22
    1d22:	77 1f       	adc	r23, r23
    1d24:	88 1f       	adc	r24, r24
    1d26:	da f7       	brpl	.-10     	; 0x1d1e <__floatsisf+0x62>
    1d28:	88 0f       	add	r24, r24
    1d2a:	96 95       	lsr	r25
    1d2c:	87 95       	ror	r24
    1d2e:	97 f9       	bld	r25, 7
    1d30:	08 95       	ret

00001d32 <__fp_cmp>:
    1d32:	99 0f       	add	r25, r25
    1d34:	00 08       	sbc	r0, r0
    1d36:	55 0f       	add	r21, r21
    1d38:	aa 0b       	sbc	r26, r26
    1d3a:	e0 e8       	ldi	r30, 0x80	; 128
    1d3c:	fe ef       	ldi	r31, 0xFE	; 254
    1d3e:	16 16       	cp	r1, r22
    1d40:	17 06       	cpc	r1, r23
    1d42:	e8 07       	cpc	r30, r24
    1d44:	f9 07       	cpc	r31, r25
    1d46:	c0 f0       	brcs	.+48     	; 0x1d78 <__fp_cmp+0x46>
    1d48:	12 16       	cp	r1, r18
    1d4a:	13 06       	cpc	r1, r19
    1d4c:	e4 07       	cpc	r30, r20
    1d4e:	f5 07       	cpc	r31, r21
    1d50:	98 f0       	brcs	.+38     	; 0x1d78 <__fp_cmp+0x46>
    1d52:	62 1b       	sub	r22, r18
    1d54:	73 0b       	sbc	r23, r19
    1d56:	84 0b       	sbc	r24, r20
    1d58:	95 0b       	sbc	r25, r21
    1d5a:	39 f4       	brne	.+14     	; 0x1d6a <__fp_cmp+0x38>
    1d5c:	0a 26       	eor	r0, r26
    1d5e:	61 f0       	breq	.+24     	; 0x1d78 <__fp_cmp+0x46>
    1d60:	23 2b       	or	r18, r19
    1d62:	24 2b       	or	r18, r20
    1d64:	25 2b       	or	r18, r21
    1d66:	21 f4       	brne	.+8      	; 0x1d70 <__fp_cmp+0x3e>
    1d68:	08 95       	ret
    1d6a:	0a 26       	eor	r0, r26
    1d6c:	09 f4       	brne	.+2      	; 0x1d70 <__fp_cmp+0x3e>
    1d6e:	a1 40       	sbci	r26, 0x01	; 1
    1d70:	a6 95       	lsr	r26
    1d72:	8f ef       	ldi	r24, 0xFF	; 255
    1d74:	81 1d       	adc	r24, r1
    1d76:	81 1d       	adc	r24, r1
    1d78:	08 95       	ret

00001d7a <__fp_inf>:
    1d7a:	97 f9       	bld	r25, 7
    1d7c:	9f 67       	ori	r25, 0x7F	; 127
    1d7e:	80 e8       	ldi	r24, 0x80	; 128
    1d80:	70 e0       	ldi	r23, 0x00	; 0
    1d82:	60 e0       	ldi	r22, 0x00	; 0
    1d84:	08 95       	ret

00001d86 <__fp_nan>:
    1d86:	9f ef       	ldi	r25, 0xFF	; 255
    1d88:	80 ec       	ldi	r24, 0xC0	; 192
    1d8a:	08 95       	ret

00001d8c <__fp_pscA>:
    1d8c:	00 24       	eor	r0, r0
    1d8e:	0a 94       	dec	r0
    1d90:	16 16       	cp	r1, r22
    1d92:	17 06       	cpc	r1, r23
    1d94:	18 06       	cpc	r1, r24
    1d96:	09 06       	cpc	r0, r25
    1d98:	08 95       	ret

00001d9a <__fp_pscB>:
    1d9a:	00 24       	eor	r0, r0
    1d9c:	0a 94       	dec	r0
    1d9e:	12 16       	cp	r1, r18
    1da0:	13 06       	cpc	r1, r19
    1da2:	14 06       	cpc	r1, r20
    1da4:	05 06       	cpc	r0, r21
    1da6:	08 95       	ret

00001da8 <__fp_round>:
    1da8:	09 2e       	mov	r0, r25
    1daa:	03 94       	inc	r0
    1dac:	00 0c       	add	r0, r0
    1dae:	11 f4       	brne	.+4      	; 0x1db4 <__fp_round+0xc>
    1db0:	88 23       	and	r24, r24
    1db2:	52 f0       	brmi	.+20     	; 0x1dc8 <__fp_round+0x20>
    1db4:	bb 0f       	add	r27, r27
    1db6:	40 f4       	brcc	.+16     	; 0x1dc8 <__fp_round+0x20>
    1db8:	bf 2b       	or	r27, r31
    1dba:	11 f4       	brne	.+4      	; 0x1dc0 <__fp_round+0x18>
    1dbc:	60 ff       	sbrs	r22, 0
    1dbe:	04 c0       	rjmp	.+8      	; 0x1dc8 <__fp_round+0x20>
    1dc0:	6f 5f       	subi	r22, 0xFF	; 255
    1dc2:	7f 4f       	sbci	r23, 0xFF	; 255
    1dc4:	8f 4f       	sbci	r24, 0xFF	; 255
    1dc6:	9f 4f       	sbci	r25, 0xFF	; 255
    1dc8:	08 95       	ret

00001dca <__fp_split3>:
    1dca:	57 fd       	sbrc	r21, 7
    1dcc:	90 58       	subi	r25, 0x80	; 128
    1dce:	44 0f       	add	r20, r20
    1dd0:	55 1f       	adc	r21, r21
    1dd2:	59 f0       	breq	.+22     	; 0x1dea <__fp_splitA+0x10>
    1dd4:	5f 3f       	cpi	r21, 0xFF	; 255
    1dd6:	71 f0       	breq	.+28     	; 0x1df4 <__fp_splitA+0x1a>
    1dd8:	47 95       	ror	r20

00001dda <__fp_splitA>:
    1dda:	88 0f       	add	r24, r24
    1ddc:	97 fb       	bst	r25, 7
    1dde:	99 1f       	adc	r25, r25
    1de0:	61 f0       	breq	.+24     	; 0x1dfa <__fp_splitA+0x20>
    1de2:	9f 3f       	cpi	r25, 0xFF	; 255
    1de4:	79 f0       	breq	.+30     	; 0x1e04 <__fp_splitA+0x2a>
    1de6:	87 95       	ror	r24
    1de8:	08 95       	ret
    1dea:	12 16       	cp	r1, r18
    1dec:	13 06       	cpc	r1, r19
    1dee:	14 06       	cpc	r1, r20
    1df0:	55 1f       	adc	r21, r21
    1df2:	f2 cf       	rjmp	.-28     	; 0x1dd8 <__fp_split3+0xe>
    1df4:	46 95       	lsr	r20
    1df6:	f1 df       	rcall	.-30     	; 0x1dda <__fp_splitA>
    1df8:	08 c0       	rjmp	.+16     	; 0x1e0a <__fp_splitA+0x30>
    1dfa:	16 16       	cp	r1, r22
    1dfc:	17 06       	cpc	r1, r23
    1dfe:	18 06       	cpc	r1, r24
    1e00:	99 1f       	adc	r25, r25
    1e02:	f1 cf       	rjmp	.-30     	; 0x1de6 <__fp_splitA+0xc>
    1e04:	86 95       	lsr	r24
    1e06:	71 05       	cpc	r23, r1
    1e08:	61 05       	cpc	r22, r1
    1e0a:	08 94       	sec
    1e0c:	08 95       	ret

00001e0e <__fp_zero>:
    1e0e:	e8 94       	clt

00001e10 <__fp_szero>:
    1e10:	bb 27       	eor	r27, r27
    1e12:	66 27       	eor	r22, r22
    1e14:	77 27       	eor	r23, r23
    1e16:	cb 01       	movw	r24, r22
    1e18:	97 f9       	bld	r25, 7
    1e1a:	08 95       	ret

00001e1c <__gesf2>:
    1e1c:	8a df       	rcall	.-236    	; 0x1d32 <__fp_cmp>
    1e1e:	08 f4       	brcc	.+2      	; 0x1e22 <__gesf2+0x6>
    1e20:	8f ef       	ldi	r24, 0xFF	; 255
    1e22:	08 95       	ret

00001e24 <__mulsf3>:
    1e24:	0b d0       	rcall	.+22     	; 0x1e3c <__mulsf3x>
    1e26:	c0 cf       	rjmp	.-128    	; 0x1da8 <__fp_round>
    1e28:	b1 df       	rcall	.-158    	; 0x1d8c <__fp_pscA>
    1e2a:	28 f0       	brcs	.+10     	; 0x1e36 <__mulsf3+0x12>
    1e2c:	b6 df       	rcall	.-148    	; 0x1d9a <__fp_pscB>
    1e2e:	18 f0       	brcs	.+6      	; 0x1e36 <__mulsf3+0x12>
    1e30:	95 23       	and	r25, r21
    1e32:	09 f0       	breq	.+2      	; 0x1e36 <__mulsf3+0x12>
    1e34:	a2 cf       	rjmp	.-188    	; 0x1d7a <__fp_inf>
    1e36:	a7 cf       	rjmp	.-178    	; 0x1d86 <__fp_nan>
    1e38:	11 24       	eor	r1, r1
    1e3a:	ea cf       	rjmp	.-44     	; 0x1e10 <__fp_szero>

00001e3c <__mulsf3x>:
    1e3c:	c6 df       	rcall	.-116    	; 0x1dca <__fp_split3>
    1e3e:	a0 f3       	brcs	.-24     	; 0x1e28 <__mulsf3+0x4>

00001e40 <__mulsf3_pse>:
    1e40:	95 9f       	mul	r25, r21
    1e42:	d1 f3       	breq	.-12     	; 0x1e38 <__mulsf3+0x14>
    1e44:	95 0f       	add	r25, r21
    1e46:	50 e0       	ldi	r21, 0x00	; 0
    1e48:	55 1f       	adc	r21, r21
    1e4a:	62 9f       	mul	r22, r18
    1e4c:	f0 01       	movw	r30, r0
    1e4e:	72 9f       	mul	r23, r18
    1e50:	bb 27       	eor	r27, r27
    1e52:	f0 0d       	add	r31, r0
    1e54:	b1 1d       	adc	r27, r1
    1e56:	63 9f       	mul	r22, r19
    1e58:	aa 27       	eor	r26, r26
    1e5a:	f0 0d       	add	r31, r0
    1e5c:	b1 1d       	adc	r27, r1
    1e5e:	aa 1f       	adc	r26, r26
    1e60:	64 9f       	mul	r22, r20
    1e62:	66 27       	eor	r22, r22
    1e64:	b0 0d       	add	r27, r0
    1e66:	a1 1d       	adc	r26, r1
    1e68:	66 1f       	adc	r22, r22
    1e6a:	82 9f       	mul	r24, r18
    1e6c:	22 27       	eor	r18, r18
    1e6e:	b0 0d       	add	r27, r0
    1e70:	a1 1d       	adc	r26, r1
    1e72:	62 1f       	adc	r22, r18
    1e74:	73 9f       	mul	r23, r19
    1e76:	b0 0d       	add	r27, r0
    1e78:	a1 1d       	adc	r26, r1
    1e7a:	62 1f       	adc	r22, r18
    1e7c:	83 9f       	mul	r24, r19
    1e7e:	a0 0d       	add	r26, r0
    1e80:	61 1d       	adc	r22, r1
    1e82:	22 1f       	adc	r18, r18
    1e84:	74 9f       	mul	r23, r20
    1e86:	33 27       	eor	r19, r19
    1e88:	a0 0d       	add	r26, r0
    1e8a:	61 1d       	adc	r22, r1
    1e8c:	23 1f       	adc	r18, r19
    1e8e:	84 9f       	mul	r24, r20
    1e90:	60 0d       	add	r22, r0
    1e92:	21 1d       	adc	r18, r1
    1e94:	82 2f       	mov	r24, r18
    1e96:	76 2f       	mov	r23, r22
    1e98:	6a 2f       	mov	r22, r26
    1e9a:	11 24       	eor	r1, r1
    1e9c:	9f 57       	subi	r25, 0x7F	; 127
    1e9e:	50 40       	sbci	r21, 0x00	; 0
    1ea0:	8a f0       	brmi	.+34     	; 0x1ec4 <__mulsf3_pse+0x84>
    1ea2:	e1 f0       	breq	.+56     	; 0x1edc <__mulsf3_pse+0x9c>
    1ea4:	88 23       	and	r24, r24
    1ea6:	4a f0       	brmi	.+18     	; 0x1eba <__mulsf3_pse+0x7a>
    1ea8:	ee 0f       	add	r30, r30
    1eaa:	ff 1f       	adc	r31, r31
    1eac:	bb 1f       	adc	r27, r27
    1eae:	66 1f       	adc	r22, r22
    1eb0:	77 1f       	adc	r23, r23
    1eb2:	88 1f       	adc	r24, r24
    1eb4:	91 50       	subi	r25, 0x01	; 1
    1eb6:	50 40       	sbci	r21, 0x00	; 0
    1eb8:	a9 f7       	brne	.-22     	; 0x1ea4 <__mulsf3_pse+0x64>
    1eba:	9e 3f       	cpi	r25, 0xFE	; 254
    1ebc:	51 05       	cpc	r21, r1
    1ebe:	70 f0       	brcs	.+28     	; 0x1edc <__mulsf3_pse+0x9c>
    1ec0:	5c cf       	rjmp	.-328    	; 0x1d7a <__fp_inf>
    1ec2:	a6 cf       	rjmp	.-180    	; 0x1e10 <__fp_szero>
    1ec4:	5f 3f       	cpi	r21, 0xFF	; 255
    1ec6:	ec f3       	brlt	.-6      	; 0x1ec2 <__mulsf3_pse+0x82>
    1ec8:	98 3e       	cpi	r25, 0xE8	; 232
    1eca:	dc f3       	brlt	.-10     	; 0x1ec2 <__mulsf3_pse+0x82>
    1ecc:	86 95       	lsr	r24
    1ece:	77 95       	ror	r23
    1ed0:	67 95       	ror	r22
    1ed2:	b7 95       	ror	r27
    1ed4:	f7 95       	ror	r31
    1ed6:	e7 95       	ror	r30
    1ed8:	9f 5f       	subi	r25, 0xFF	; 255
    1eda:	c1 f7       	brne	.-16     	; 0x1ecc <__mulsf3_pse+0x8c>
    1edc:	fe 2b       	or	r31, r30
    1ede:	88 0f       	add	r24, r24
    1ee0:	91 1d       	adc	r25, r1
    1ee2:	96 95       	lsr	r25
    1ee4:	87 95       	ror	r24
    1ee6:	97 f9       	bld	r25, 7
    1ee8:	08 95       	ret

00001eea <__divmodhi4>:
    1eea:	97 fb       	bst	r25, 7
    1eec:	09 2e       	mov	r0, r25
    1eee:	07 26       	eor	r0, r23
    1ef0:	0a d0       	rcall	.+20     	; 0x1f06 <__divmodhi4_neg1>
    1ef2:	77 fd       	sbrc	r23, 7
    1ef4:	04 d0       	rcall	.+8      	; 0x1efe <__divmodhi4_neg2>
    1ef6:	2e d0       	rcall	.+92     	; 0x1f54 <__udivmodhi4>
    1ef8:	06 d0       	rcall	.+12     	; 0x1f06 <__divmodhi4_neg1>
    1efa:	00 20       	and	r0, r0
    1efc:	1a f4       	brpl	.+6      	; 0x1f04 <__divmodhi4_exit>

00001efe <__divmodhi4_neg2>:
    1efe:	70 95       	com	r23
    1f00:	61 95       	neg	r22
    1f02:	7f 4f       	sbci	r23, 0xFF	; 255

00001f04 <__divmodhi4_exit>:
    1f04:	08 95       	ret

00001f06 <__divmodhi4_neg1>:
    1f06:	f6 f7       	brtc	.-4      	; 0x1f04 <__divmodhi4_exit>
    1f08:	90 95       	com	r25
    1f0a:	81 95       	neg	r24
    1f0c:	9f 4f       	sbci	r25, 0xFF	; 255
    1f0e:	08 95       	ret

00001f10 <__udivmodsi4>:
    1f10:	a1 e2       	ldi	r26, 0x21	; 33
    1f12:	1a 2e       	mov	r1, r26
    1f14:	aa 1b       	sub	r26, r26
    1f16:	bb 1b       	sub	r27, r27
    1f18:	fd 01       	movw	r30, r26
    1f1a:	0d c0       	rjmp	.+26     	; 0x1f36 <__udivmodsi4_ep>

00001f1c <__udivmodsi4_loop>:
    1f1c:	aa 1f       	adc	r26, r26
    1f1e:	bb 1f       	adc	r27, r27
    1f20:	ee 1f       	adc	r30, r30
    1f22:	ff 1f       	adc	r31, r31
    1f24:	a2 17       	cp	r26, r18
    1f26:	b3 07       	cpc	r27, r19
    1f28:	e4 07       	cpc	r30, r20
    1f2a:	f5 07       	cpc	r31, r21
    1f2c:	20 f0       	brcs	.+8      	; 0x1f36 <__udivmodsi4_ep>
    1f2e:	a2 1b       	sub	r26, r18
    1f30:	b3 0b       	sbc	r27, r19
    1f32:	e4 0b       	sbc	r30, r20
    1f34:	f5 0b       	sbc	r31, r21

00001f36 <__udivmodsi4_ep>:
    1f36:	66 1f       	adc	r22, r22
    1f38:	77 1f       	adc	r23, r23
    1f3a:	88 1f       	adc	r24, r24
    1f3c:	99 1f       	adc	r25, r25
    1f3e:	1a 94       	dec	r1
    1f40:	69 f7       	brne	.-38     	; 0x1f1c <__udivmodsi4_loop>
    1f42:	60 95       	com	r22
    1f44:	70 95       	com	r23
    1f46:	80 95       	com	r24
    1f48:	90 95       	com	r25
    1f4a:	9b 01       	movw	r18, r22
    1f4c:	ac 01       	movw	r20, r24
    1f4e:	bd 01       	movw	r22, r26
    1f50:	cf 01       	movw	r24, r30
    1f52:	08 95       	ret

00001f54 <__udivmodhi4>:
    1f54:	aa 1b       	sub	r26, r26
    1f56:	bb 1b       	sub	r27, r27
    1f58:	51 e1       	ldi	r21, 0x11	; 17
    1f5a:	07 c0       	rjmp	.+14     	; 0x1f6a <__udivmodhi4_ep>

00001f5c <__udivmodhi4_loop>:
    1f5c:	aa 1f       	adc	r26, r26
    1f5e:	bb 1f       	adc	r27, r27
    1f60:	a6 17       	cp	r26, r22
    1f62:	b7 07       	cpc	r27, r23
    1f64:	10 f0       	brcs	.+4      	; 0x1f6a <__udivmodhi4_ep>
    1f66:	a6 1b       	sub	r26, r22
    1f68:	b7 0b       	sbc	r27, r23

00001f6a <__udivmodhi4_ep>:
    1f6a:	88 1f       	adc	r24, r24
    1f6c:	99 1f       	adc	r25, r25
    1f6e:	5a 95       	dec	r21
    1f70:	a9 f7       	brne	.-22     	; 0x1f5c <__udivmodhi4_loop>
    1f72:	80 95       	com	r24
    1f74:	90 95       	com	r25
    1f76:	bc 01       	movw	r22, r24
    1f78:	cd 01       	movw	r24, r26
    1f7a:	08 95       	ret

00001f7c <malloc>:
    1f7c:	cf 93       	push	r28
    1f7e:	df 93       	push	r29
    1f80:	ac 01       	movw	r20, r24
    1f82:	82 30       	cpi	r24, 0x02	; 2
    1f84:	91 05       	cpc	r25, r1
    1f86:	10 f4       	brcc	.+4      	; 0x1f8c <malloc+0x10>
    1f88:	42 e0       	ldi	r20, 0x02	; 2
    1f8a:	50 e0       	ldi	r21, 0x00	; 0
    1f8c:	e0 91 a7 00 	lds	r30, 0x00A7
    1f90:	f0 91 a8 00 	lds	r31, 0x00A8
    1f94:	20 e0       	ldi	r18, 0x00	; 0
    1f96:	30 e0       	ldi	r19, 0x00	; 0
    1f98:	a0 e0       	ldi	r26, 0x00	; 0
    1f9a:	b0 e0       	ldi	r27, 0x00	; 0
    1f9c:	24 c0       	rjmp	.+72     	; 0x1fe6 <malloc+0x6a>
    1f9e:	80 81       	ld	r24, Z
    1fa0:	91 81       	ldd	r25, Z+1	; 0x01
    1fa2:	84 17       	cp	r24, r20
    1fa4:	95 07       	cpc	r25, r21
    1fa6:	d0 f0       	brcs	.+52     	; 0x1fdc <malloc+0x60>
    1fa8:	84 17       	cp	r24, r20
    1faa:	95 07       	cpc	r25, r21
    1fac:	71 f4       	brne	.+28     	; 0x1fca <malloc+0x4e>
    1fae:	82 81       	ldd	r24, Z+2	; 0x02
    1fb0:	93 81       	ldd	r25, Z+3	; 0x03
    1fb2:	10 97       	sbiw	r26, 0x00	; 0
    1fb4:	29 f0       	breq	.+10     	; 0x1fc0 <malloc+0x44>
    1fb6:	13 96       	adiw	r26, 0x03	; 3
    1fb8:	9c 93       	st	X, r25
    1fba:	8e 93       	st	-X, r24
    1fbc:	12 97       	sbiw	r26, 0x02	; 2
    1fbe:	2c c0       	rjmp	.+88     	; 0x2018 <malloc+0x9c>
    1fc0:	90 93 a8 00 	sts	0x00A8, r25
    1fc4:	80 93 a7 00 	sts	0x00A7, r24
    1fc8:	27 c0       	rjmp	.+78     	; 0x2018 <malloc+0x9c>
    1fca:	21 15       	cp	r18, r1
    1fcc:	31 05       	cpc	r19, r1
    1fce:	19 f0       	breq	.+6      	; 0x1fd6 <malloc+0x5a>
    1fd0:	82 17       	cp	r24, r18
    1fd2:	93 07       	cpc	r25, r19
    1fd4:	18 f4       	brcc	.+6      	; 0x1fdc <malloc+0x60>
    1fd6:	9c 01       	movw	r18, r24
    1fd8:	bd 01       	movw	r22, r26
    1fda:	ef 01       	movw	r28, r30
    1fdc:	92 81       	ldd	r25, Z+2	; 0x02
    1fde:	83 81       	ldd	r24, Z+3	; 0x03
    1fe0:	df 01       	movw	r26, r30
    1fe2:	e9 2f       	mov	r30, r25
    1fe4:	f8 2f       	mov	r31, r24
    1fe6:	30 97       	sbiw	r30, 0x00	; 0
    1fe8:	d1 f6       	brne	.-76     	; 0x1f9e <malloc+0x22>
    1fea:	21 15       	cp	r18, r1
    1fec:	31 05       	cpc	r19, r1
    1fee:	f9 f0       	breq	.+62     	; 0x202e <malloc+0xb2>
    1ff0:	c9 01       	movw	r24, r18
    1ff2:	84 1b       	sub	r24, r20
    1ff4:	95 0b       	sbc	r25, r21
    1ff6:	84 30       	cpi	r24, 0x04	; 4
    1ff8:	91 05       	cpc	r25, r1
    1ffa:	80 f4       	brcc	.+32     	; 0x201c <malloc+0xa0>
    1ffc:	8a 81       	ldd	r24, Y+2	; 0x02
    1ffe:	9b 81       	ldd	r25, Y+3	; 0x03
    2000:	61 15       	cp	r22, r1
    2002:	71 05       	cpc	r23, r1
    2004:	21 f0       	breq	.+8      	; 0x200e <malloc+0x92>
    2006:	fb 01       	movw	r30, r22
    2008:	93 83       	std	Z+3, r25	; 0x03
    200a:	82 83       	std	Z+2, r24	; 0x02
    200c:	04 c0       	rjmp	.+8      	; 0x2016 <malloc+0x9a>
    200e:	90 93 a8 00 	sts	0x00A8, r25
    2012:	80 93 a7 00 	sts	0x00A7, r24
    2016:	fe 01       	movw	r30, r28
    2018:	32 96       	adiw	r30, 0x02	; 2
    201a:	42 c0       	rjmp	.+132    	; 0x20a0 <malloc+0x124>
    201c:	fe 01       	movw	r30, r28
    201e:	e8 0f       	add	r30, r24
    2020:	f9 1f       	adc	r31, r25
    2022:	41 93       	st	Z+, r20
    2024:	51 93       	st	Z+, r21
    2026:	02 97       	sbiw	r24, 0x02	; 2
    2028:	99 83       	std	Y+1, r25	; 0x01
    202a:	88 83       	st	Y, r24
    202c:	39 c0       	rjmp	.+114    	; 0x20a0 <malloc+0x124>
    202e:	80 91 a5 00 	lds	r24, 0x00A5
    2032:	90 91 a6 00 	lds	r25, 0x00A6
    2036:	00 97       	sbiw	r24, 0x00	; 0
    2038:	41 f4       	brne	.+16     	; 0x204a <malloc+0xce>
    203a:	80 91 81 00 	lds	r24, 0x0081
    203e:	90 91 82 00 	lds	r25, 0x0082
    2042:	90 93 a6 00 	sts	0x00A6, r25
    2046:	80 93 a5 00 	sts	0x00A5, r24
    204a:	20 91 7f 00 	lds	r18, 0x007F
    204e:	30 91 80 00 	lds	r19, 0x0080
    2052:	21 15       	cp	r18, r1
    2054:	31 05       	cpc	r19, r1
    2056:	41 f4       	brne	.+16     	; 0x2068 <malloc+0xec>
    2058:	2d b7       	in	r18, 0x3d	; 61
    205a:	3e b7       	in	r19, 0x3e	; 62
    205c:	80 91 83 00 	lds	r24, 0x0083
    2060:	90 91 84 00 	lds	r25, 0x0084
    2064:	28 1b       	sub	r18, r24
    2066:	39 0b       	sbc	r19, r25
    2068:	e0 91 a5 00 	lds	r30, 0x00A5
    206c:	f0 91 a6 00 	lds	r31, 0x00A6
    2070:	e2 17       	cp	r30, r18
    2072:	f3 07       	cpc	r31, r19
    2074:	98 f4       	brcc	.+38     	; 0x209c <malloc+0x120>
    2076:	2e 1b       	sub	r18, r30
    2078:	3f 0b       	sbc	r19, r31
    207a:	24 17       	cp	r18, r20
    207c:	35 07       	cpc	r19, r21
    207e:	70 f0       	brcs	.+28     	; 0x209c <malloc+0x120>
    2080:	ca 01       	movw	r24, r20
    2082:	02 96       	adiw	r24, 0x02	; 2
    2084:	28 17       	cp	r18, r24
    2086:	39 07       	cpc	r19, r25
    2088:	48 f0       	brcs	.+18     	; 0x209c <malloc+0x120>
    208a:	8e 0f       	add	r24, r30
    208c:	9f 1f       	adc	r25, r31
    208e:	90 93 a6 00 	sts	0x00A6, r25
    2092:	80 93 a5 00 	sts	0x00A5, r24
    2096:	41 93       	st	Z+, r20
    2098:	51 93       	st	Z+, r21
    209a:	02 c0       	rjmp	.+4      	; 0x20a0 <malloc+0x124>
    209c:	e0 e0       	ldi	r30, 0x00	; 0
    209e:	f0 e0       	ldi	r31, 0x00	; 0
    20a0:	cf 01       	movw	r24, r30
    20a2:	df 91       	pop	r29
    20a4:	cf 91       	pop	r28
    20a6:	08 95       	ret

000020a8 <free>:
    20a8:	0f 93       	push	r16
    20aa:	1f 93       	push	r17
    20ac:	cf 93       	push	r28
    20ae:	df 93       	push	r29
    20b0:	9c 01       	movw	r18, r24
    20b2:	00 97       	sbiw	r24, 0x00	; 0
    20b4:	09 f4       	brne	.+2      	; 0x20b8 <free+0x10>
    20b6:	8c c0       	rjmp	.+280    	; 0x21d0 <free+0x128>
    20b8:	dc 01       	movw	r26, r24
    20ba:	12 97       	sbiw	r26, 0x02	; 2
    20bc:	13 96       	adiw	r26, 0x03	; 3
    20be:	1c 92       	st	X, r1
    20c0:	1e 92       	st	-X, r1
    20c2:	12 97       	sbiw	r26, 0x02	; 2
    20c4:	60 91 a7 00 	lds	r22, 0x00A7
    20c8:	70 91 a8 00 	lds	r23, 0x00A8
    20cc:	61 15       	cp	r22, r1
    20ce:	71 05       	cpc	r23, r1
    20d0:	89 f4       	brne	.+34     	; 0x20f4 <free+0x4c>
    20d2:	8d 91       	ld	r24, X+
    20d4:	9c 91       	ld	r25, X
    20d6:	11 97       	sbiw	r26, 0x01	; 1
    20d8:	82 0f       	add	r24, r18
    20da:	93 1f       	adc	r25, r19
    20dc:	20 91 a5 00 	lds	r18, 0x00A5
    20e0:	30 91 a6 00 	lds	r19, 0x00A6
    20e4:	28 17       	cp	r18, r24
    20e6:	39 07       	cpc	r19, r25
    20e8:	69 f5       	brne	.+90     	; 0x2144 <free+0x9c>
    20ea:	b0 93 a6 00 	sts	0x00A6, r27
    20ee:	a0 93 a5 00 	sts	0x00A5, r26
    20f2:	6e c0       	rjmp	.+220    	; 0x21d0 <free+0x128>
    20f4:	fb 01       	movw	r30, r22
    20f6:	40 e0       	ldi	r20, 0x00	; 0
    20f8:	50 e0       	ldi	r21, 0x00	; 0
    20fa:	01 c0       	rjmp	.+2      	; 0x20fe <free+0x56>
    20fc:	fc 01       	movw	r30, r24
    20fe:	ea 17       	cp	r30, r26
    2100:	fb 07       	cpc	r31, r27
    2102:	30 f4       	brcc	.+12     	; 0x2110 <free+0x68>
    2104:	82 81       	ldd	r24, Z+2	; 0x02
    2106:	93 81       	ldd	r25, Z+3	; 0x03
    2108:	af 01       	movw	r20, r30
    210a:	00 97       	sbiw	r24, 0x00	; 0
    210c:	b9 f7       	brne	.-18     	; 0x20fc <free+0x54>
    210e:	1f c0       	rjmp	.+62     	; 0x214e <free+0xa6>
    2110:	e9 01       	movw	r28, r18
    2112:	22 97       	sbiw	r28, 0x02	; 2
    2114:	fb 83       	std	Y+3, r31	; 0x03
    2116:	ea 83       	std	Y+2, r30	; 0x02
    2118:	08 81       	ld	r16, Y
    211a:	19 81       	ldd	r17, Y+1	; 0x01
    211c:	c9 01       	movw	r24, r18
    211e:	80 0f       	add	r24, r16
    2120:	91 1f       	adc	r25, r17
    2122:	8e 17       	cp	r24, r30
    2124:	9f 07       	cpc	r25, r31
    2126:	59 f4       	brne	.+22     	; 0x213e <free+0x96>
    2128:	80 81       	ld	r24, Z
    212a:	91 81       	ldd	r25, Z+1	; 0x01
    212c:	80 0f       	add	r24, r16
    212e:	91 1f       	adc	r25, r17
    2130:	02 96       	adiw	r24, 0x02	; 2
    2132:	99 83       	std	Y+1, r25	; 0x01
    2134:	88 83       	st	Y, r24
    2136:	82 81       	ldd	r24, Z+2	; 0x02
    2138:	93 81       	ldd	r25, Z+3	; 0x03
    213a:	9b 83       	std	Y+3, r25	; 0x03
    213c:	8a 83       	std	Y+2, r24	; 0x02
    213e:	41 15       	cp	r20, r1
    2140:	51 05       	cpc	r21, r1
    2142:	29 f4       	brne	.+10     	; 0x214e <free+0xa6>
    2144:	b0 93 a8 00 	sts	0x00A8, r27
    2148:	a0 93 a7 00 	sts	0x00A7, r26
    214c:	41 c0       	rjmp	.+130    	; 0x21d0 <free+0x128>
    214e:	fa 01       	movw	r30, r20
    2150:	b3 83       	std	Z+3, r27	; 0x03
    2152:	a2 83       	std	Z+2, r26	; 0x02
    2154:	c1 91       	ld	r28, Z+
    2156:	d1 91       	ld	r29, Z+
    2158:	ec 0f       	add	r30, r28
    215a:	fd 1f       	adc	r31, r29
    215c:	ae 17       	cp	r26, r30
    215e:	bf 07       	cpc	r27, r31
    2160:	81 f4       	brne	.+32     	; 0x2182 <free+0xda>
    2162:	f9 01       	movw	r30, r18
    2164:	92 91       	ld	r25, -Z
    2166:	82 91       	ld	r24, -Z
    2168:	8c 0f       	add	r24, r28
    216a:	9d 1f       	adc	r25, r29
    216c:	02 96       	adiw	r24, 0x02	; 2
    216e:	da 01       	movw	r26, r20
    2170:	11 96       	adiw	r26, 0x01	; 1
    2172:	9c 93       	st	X, r25
    2174:	8e 93       	st	-X, r24
    2176:	82 81       	ldd	r24, Z+2	; 0x02
    2178:	93 81       	ldd	r25, Z+3	; 0x03
    217a:	13 96       	adiw	r26, 0x03	; 3
    217c:	9c 93       	st	X, r25
    217e:	8e 93       	st	-X, r24
    2180:	12 97       	sbiw	r26, 0x02	; 2
    2182:	e0 e0       	ldi	r30, 0x00	; 0
    2184:	f0 e0       	ldi	r31, 0x00	; 0
    2186:	02 c0       	rjmp	.+4      	; 0x218c <free+0xe4>
    2188:	fb 01       	movw	r30, r22
    218a:	bc 01       	movw	r22, r24
    218c:	db 01       	movw	r26, r22
    218e:	12 96       	adiw	r26, 0x02	; 2
    2190:	8d 91       	ld	r24, X+
    2192:	9c 91       	ld	r25, X
    2194:	13 97       	sbiw	r26, 0x03	; 3
    2196:	00 97       	sbiw	r24, 0x00	; 0
    2198:	b9 f7       	brne	.-18     	; 0x2188 <free+0xe0>
    219a:	cb 01       	movw	r24, r22
    219c:	02 96       	adiw	r24, 0x02	; 2
    219e:	2d 91       	ld	r18, X+
    21a0:	3c 91       	ld	r19, X
    21a2:	11 97       	sbiw	r26, 0x01	; 1
    21a4:	82 0f       	add	r24, r18
    21a6:	93 1f       	adc	r25, r19
    21a8:	20 91 a5 00 	lds	r18, 0x00A5
    21ac:	30 91 a6 00 	lds	r19, 0x00A6
    21b0:	28 17       	cp	r18, r24
    21b2:	39 07       	cpc	r19, r25
    21b4:	69 f4       	brne	.+26     	; 0x21d0 <free+0x128>
    21b6:	30 97       	sbiw	r30, 0x00	; 0
    21b8:	29 f4       	brne	.+10     	; 0x21c4 <free+0x11c>
    21ba:	10 92 a8 00 	sts	0x00A8, r1
    21be:	10 92 a7 00 	sts	0x00A7, r1
    21c2:	02 c0       	rjmp	.+4      	; 0x21c8 <free+0x120>
    21c4:	13 82       	std	Z+3, r1	; 0x03
    21c6:	12 82       	std	Z+2, r1	; 0x02
    21c8:	70 93 a6 00 	sts	0x00A6, r23
    21cc:	60 93 a5 00 	sts	0x00A5, r22
    21d0:	df 91       	pop	r29
    21d2:	cf 91       	pop	r28
    21d4:	1f 91       	pop	r17
    21d6:	0f 91       	pop	r16
    21d8:	08 95       	ret

000021da <strcpy>:
    21da:	fb 01       	movw	r30, r22
    21dc:	dc 01       	movw	r26, r24
    21de:	01 90       	ld	r0, Z+
    21e0:	0d 92       	st	X+, r0
    21e2:	00 20       	and	r0, r0
    21e4:	e1 f7       	brne	.-8      	; 0x21de <strcpy+0x4>
    21e6:	08 95       	ret

000021e8 <snprintf>:
    21e8:	ae e0       	ldi	r26, 0x0E	; 14
    21ea:	b0 e0       	ldi	r27, 0x00	; 0
    21ec:	ea ef       	ldi	r30, 0xFA	; 250
    21ee:	f0 e1       	ldi	r31, 0x10	; 16
    21f0:	0c 94 d2 13 	jmp	0x27a4	; 0x27a4 <__prologue_saves__+0x1c>
    21f4:	0d 89       	ldd	r16, Y+21	; 0x15
    21f6:	1e 89       	ldd	r17, Y+22	; 0x16
    21f8:	8f 89       	ldd	r24, Y+23	; 0x17
    21fa:	98 8d       	ldd	r25, Y+24	; 0x18
    21fc:	26 e0       	ldi	r18, 0x06	; 6
    21fe:	2c 83       	std	Y+4, r18	; 0x04
    2200:	1a 83       	std	Y+2, r17	; 0x02
    2202:	09 83       	std	Y+1, r16	; 0x01
    2204:	97 ff       	sbrs	r25, 7
    2206:	02 c0       	rjmp	.+4      	; 0x220c <snprintf+0x24>
    2208:	80 e0       	ldi	r24, 0x00	; 0
    220a:	90 e8       	ldi	r25, 0x80	; 128
    220c:	01 97       	sbiw	r24, 0x01	; 1
    220e:	9e 83       	std	Y+6, r25	; 0x06
    2210:	8d 83       	std	Y+5, r24	; 0x05
    2212:	ae 01       	movw	r20, r28
    2214:	45 5e       	subi	r20, 0xE5	; 229
    2216:	5f 4f       	sbci	r21, 0xFF	; 255
    2218:	ce 01       	movw	r24, r28
    221a:	01 96       	adiw	r24, 0x01	; 1
    221c:	69 8d       	ldd	r22, Y+25	; 0x19
    221e:	7a 8d       	ldd	r23, Y+26	; 0x1a
    2220:	0e 94 46 11 	call	0x228c	; 0x228c <vfprintf>
    2224:	4d 81       	ldd	r20, Y+5	; 0x05
    2226:	5e 81       	ldd	r21, Y+6	; 0x06
    2228:	57 fd       	sbrc	r21, 7
    222a:	0a c0       	rjmp	.+20     	; 0x2240 <snprintf+0x58>
    222c:	2f 81       	ldd	r18, Y+7	; 0x07
    222e:	38 85       	ldd	r19, Y+8	; 0x08
    2230:	42 17       	cp	r20, r18
    2232:	53 07       	cpc	r21, r19
    2234:	0c f4       	brge	.+2      	; 0x2238 <snprintf+0x50>
    2236:	9a 01       	movw	r18, r20
    2238:	02 0f       	add	r16, r18
    223a:	13 1f       	adc	r17, r19
    223c:	f8 01       	movw	r30, r16
    223e:	10 82       	st	Z, r1
    2240:	2e 96       	adiw	r28, 0x0e	; 14
    2242:	e4 e0       	ldi	r30, 0x04	; 4
    2244:	0c 94 ee 13 	jmp	0x27dc	; 0x27dc <__epilogue_restores__+0x1c>

00002248 <sprintf>:
    2248:	ae e0       	ldi	r26, 0x0E	; 14
    224a:	b0 e0       	ldi	r27, 0x00	; 0
    224c:	ea e2       	ldi	r30, 0x2A	; 42
    224e:	f1 e1       	ldi	r31, 0x11	; 17
    2250:	0c 94 d2 13 	jmp	0x27a4	; 0x27a4 <__prologue_saves__+0x1c>
    2254:	0d 89       	ldd	r16, Y+21	; 0x15
    2256:	1e 89       	ldd	r17, Y+22	; 0x16
    2258:	86 e0       	ldi	r24, 0x06	; 6
    225a:	8c 83       	std	Y+4, r24	; 0x04
    225c:	1a 83       	std	Y+2, r17	; 0x02
    225e:	09 83       	std	Y+1, r16	; 0x01
    2260:	8f ef       	ldi	r24, 0xFF	; 255
    2262:	9f e7       	ldi	r25, 0x7F	; 127
    2264:	9e 83       	std	Y+6, r25	; 0x06
    2266:	8d 83       	std	Y+5, r24	; 0x05
    2268:	ae 01       	movw	r20, r28
    226a:	47 5e       	subi	r20, 0xE7	; 231
    226c:	5f 4f       	sbci	r21, 0xFF	; 255
    226e:	ce 01       	movw	r24, r28
    2270:	01 96       	adiw	r24, 0x01	; 1
    2272:	6f 89       	ldd	r22, Y+23	; 0x17
    2274:	78 8d       	ldd	r23, Y+24	; 0x18
    2276:	0e 94 46 11 	call	0x228c	; 0x228c <vfprintf>
    227a:	ef 81       	ldd	r30, Y+7	; 0x07
    227c:	f8 85       	ldd	r31, Y+8	; 0x08
    227e:	e0 0f       	add	r30, r16
    2280:	f1 1f       	adc	r31, r17
    2282:	10 82       	st	Z, r1
    2284:	2e 96       	adiw	r28, 0x0e	; 14
    2286:	e4 e0       	ldi	r30, 0x04	; 4
    2288:	0c 94 ee 13 	jmp	0x27dc	; 0x27dc <__epilogue_restores__+0x1c>

0000228c <vfprintf>:
    228c:	ad e0       	ldi	r26, 0x0D	; 13
    228e:	b0 e0       	ldi	r27, 0x00	; 0
    2290:	ec e4       	ldi	r30, 0x4C	; 76
    2292:	f1 e1       	ldi	r31, 0x11	; 17
    2294:	0c 94 c4 13 	jmp	0x2788	; 0x2788 <__prologue_saves__>
    2298:	3c 01       	movw	r6, r24
    229a:	7d 87       	std	Y+13, r23	; 0x0d
    229c:	6c 87       	std	Y+12, r22	; 0x0c
    229e:	5a 01       	movw	r10, r20
    22a0:	fc 01       	movw	r30, r24
    22a2:	17 82       	std	Z+7, r1	; 0x07
    22a4:	16 82       	std	Z+6, r1	; 0x06
    22a6:	83 81       	ldd	r24, Z+3	; 0x03
    22a8:	81 ff       	sbrs	r24, 1
    22aa:	c8 c1       	rjmp	.+912    	; 0x263c <vfprintf+0x3b0>
    22ac:	2e 01       	movw	r4, r28
    22ae:	08 94       	sec
    22b0:	41 1c       	adc	r4, r1
    22b2:	51 1c       	adc	r5, r1
    22b4:	f3 01       	movw	r30, r6
    22b6:	93 81       	ldd	r25, Z+3	; 0x03
    22b8:	ec 85       	ldd	r30, Y+12	; 0x0c
    22ba:	fd 85       	ldd	r31, Y+13	; 0x0d
    22bc:	93 fd       	sbrc	r25, 3
    22be:	85 91       	lpm	r24, Z+
    22c0:	93 ff       	sbrs	r25, 3
    22c2:	81 91       	ld	r24, Z+
    22c4:	fd 87       	std	Y+13, r31	; 0x0d
    22c6:	ec 87       	std	Y+12, r30	; 0x0c
    22c8:	88 23       	and	r24, r24
    22ca:	09 f4       	brne	.+2      	; 0x22ce <vfprintf+0x42>
    22cc:	b3 c1       	rjmp	.+870    	; 0x2634 <vfprintf+0x3a8>
    22ce:	85 32       	cpi	r24, 0x25	; 37
    22d0:	41 f4       	brne	.+16     	; 0x22e2 <vfprintf+0x56>
    22d2:	93 fd       	sbrc	r25, 3
    22d4:	85 91       	lpm	r24, Z+
    22d6:	93 ff       	sbrs	r25, 3
    22d8:	81 91       	ld	r24, Z+
    22da:	fd 87       	std	Y+13, r31	; 0x0d
    22dc:	ec 87       	std	Y+12, r30	; 0x0c
    22de:	85 32       	cpi	r24, 0x25	; 37
    22e0:	29 f4       	brne	.+10     	; 0x22ec <vfprintf+0x60>
    22e2:	90 e0       	ldi	r25, 0x00	; 0
    22e4:	b3 01       	movw	r22, r6
    22e6:	0e 94 3a 13 	call	0x2674	; 0x2674 <fputc>
    22ea:	e4 cf       	rjmp	.-56     	; 0x22b4 <vfprintf+0x28>
    22ec:	ff 24       	eor	r15, r15
    22ee:	ee 24       	eor	r14, r14
    22f0:	10 e0       	ldi	r17, 0x00	; 0
    22f2:	10 32       	cpi	r17, 0x20	; 32
    22f4:	b0 f4       	brcc	.+44     	; 0x2322 <vfprintf+0x96>
    22f6:	8b 32       	cpi	r24, 0x2B	; 43
    22f8:	69 f0       	breq	.+26     	; 0x2314 <vfprintf+0x88>
    22fa:	8c 32       	cpi	r24, 0x2C	; 44
    22fc:	28 f4       	brcc	.+10     	; 0x2308 <vfprintf+0x7c>
    22fe:	80 32       	cpi	r24, 0x20	; 32
    2300:	51 f0       	breq	.+20     	; 0x2316 <vfprintf+0x8a>
    2302:	83 32       	cpi	r24, 0x23	; 35
    2304:	71 f4       	brne	.+28     	; 0x2322 <vfprintf+0x96>
    2306:	0b c0       	rjmp	.+22     	; 0x231e <vfprintf+0x92>
    2308:	8d 32       	cpi	r24, 0x2D	; 45
    230a:	39 f0       	breq	.+14     	; 0x231a <vfprintf+0x8e>
    230c:	80 33       	cpi	r24, 0x30	; 48
    230e:	49 f4       	brne	.+18     	; 0x2322 <vfprintf+0x96>
    2310:	11 60       	ori	r17, 0x01	; 1
    2312:	2c c0       	rjmp	.+88     	; 0x236c <vfprintf+0xe0>
    2314:	12 60       	ori	r17, 0x02	; 2
    2316:	14 60       	ori	r17, 0x04	; 4
    2318:	29 c0       	rjmp	.+82     	; 0x236c <vfprintf+0xe0>
    231a:	18 60       	ori	r17, 0x08	; 8
    231c:	27 c0       	rjmp	.+78     	; 0x236c <vfprintf+0xe0>
    231e:	10 61       	ori	r17, 0x10	; 16
    2320:	25 c0       	rjmp	.+74     	; 0x236c <vfprintf+0xe0>
    2322:	17 fd       	sbrc	r17, 7
    2324:	2e c0       	rjmp	.+92     	; 0x2382 <vfprintf+0xf6>
    2326:	28 2f       	mov	r18, r24
    2328:	20 53       	subi	r18, 0x30	; 48
    232a:	2a 30       	cpi	r18, 0x0A	; 10
    232c:	98 f4       	brcc	.+38     	; 0x2354 <vfprintf+0xc8>
    232e:	16 ff       	sbrs	r17, 6
    2330:	08 c0       	rjmp	.+16     	; 0x2342 <vfprintf+0xb6>
    2332:	8f 2d       	mov	r24, r15
    2334:	88 0f       	add	r24, r24
    2336:	f8 2e       	mov	r15, r24
    2338:	ff 0c       	add	r15, r15
    233a:	ff 0c       	add	r15, r15
    233c:	f8 0e       	add	r15, r24
    233e:	f2 0e       	add	r15, r18
    2340:	15 c0       	rjmp	.+42     	; 0x236c <vfprintf+0xe0>
    2342:	8e 2d       	mov	r24, r14
    2344:	88 0f       	add	r24, r24
    2346:	e8 2e       	mov	r14, r24
    2348:	ee 0c       	add	r14, r14
    234a:	ee 0c       	add	r14, r14
    234c:	e8 0e       	add	r14, r24
    234e:	e2 0e       	add	r14, r18
    2350:	10 62       	ori	r17, 0x20	; 32
    2352:	0c c0       	rjmp	.+24     	; 0x236c <vfprintf+0xe0>
    2354:	8e 32       	cpi	r24, 0x2E	; 46
    2356:	21 f4       	brne	.+8      	; 0x2360 <vfprintf+0xd4>
    2358:	16 fd       	sbrc	r17, 6
    235a:	6c c1       	rjmp	.+728    	; 0x2634 <vfprintf+0x3a8>
    235c:	10 64       	ori	r17, 0x40	; 64
    235e:	06 c0       	rjmp	.+12     	; 0x236c <vfprintf+0xe0>
    2360:	8c 36       	cpi	r24, 0x6C	; 108
    2362:	11 f4       	brne	.+4      	; 0x2368 <vfprintf+0xdc>
    2364:	10 68       	ori	r17, 0x80	; 128
    2366:	02 c0       	rjmp	.+4      	; 0x236c <vfprintf+0xe0>
    2368:	88 36       	cpi	r24, 0x68	; 104
    236a:	59 f4       	brne	.+22     	; 0x2382 <vfprintf+0xf6>
    236c:	ec 85       	ldd	r30, Y+12	; 0x0c
    236e:	fd 85       	ldd	r31, Y+13	; 0x0d
    2370:	93 fd       	sbrc	r25, 3
    2372:	85 91       	lpm	r24, Z+
    2374:	93 ff       	sbrs	r25, 3
    2376:	81 91       	ld	r24, Z+
    2378:	fd 87       	std	Y+13, r31	; 0x0d
    237a:	ec 87       	std	Y+12, r30	; 0x0c
    237c:	88 23       	and	r24, r24
    237e:	09 f0       	breq	.+2      	; 0x2382 <vfprintf+0xf6>
    2380:	b8 cf       	rjmp	.-144    	; 0x22f2 <vfprintf+0x66>
    2382:	98 2f       	mov	r25, r24
    2384:	95 54       	subi	r25, 0x45	; 69
    2386:	93 30       	cpi	r25, 0x03	; 3
    2388:	18 f0       	brcs	.+6      	; 0x2390 <vfprintf+0x104>
    238a:	90 52       	subi	r25, 0x20	; 32
    238c:	93 30       	cpi	r25, 0x03	; 3
    238e:	38 f4       	brcc	.+14     	; 0x239e <vfprintf+0x112>
    2390:	24 e0       	ldi	r18, 0x04	; 4
    2392:	30 e0       	ldi	r19, 0x00	; 0
    2394:	a2 0e       	add	r10, r18
    2396:	b3 1e       	adc	r11, r19
    2398:	3f e3       	ldi	r19, 0x3F	; 63
    239a:	39 83       	std	Y+1, r19	; 0x01
    239c:	0f c0       	rjmp	.+30     	; 0x23bc <vfprintf+0x130>
    239e:	83 36       	cpi	r24, 0x63	; 99
    23a0:	31 f0       	breq	.+12     	; 0x23ae <vfprintf+0x122>
    23a2:	83 37       	cpi	r24, 0x73	; 115
    23a4:	81 f0       	breq	.+32     	; 0x23c6 <vfprintf+0x13a>
    23a6:	83 35       	cpi	r24, 0x53	; 83
    23a8:	09 f0       	breq	.+2      	; 0x23ac <vfprintf+0x120>
    23aa:	5a c0       	rjmp	.+180    	; 0x2460 <vfprintf+0x1d4>
    23ac:	22 c0       	rjmp	.+68     	; 0x23f2 <vfprintf+0x166>
    23ae:	f5 01       	movw	r30, r10
    23b0:	80 81       	ld	r24, Z
    23b2:	89 83       	std	Y+1, r24	; 0x01
    23b4:	22 e0       	ldi	r18, 0x02	; 2
    23b6:	30 e0       	ldi	r19, 0x00	; 0
    23b8:	a2 0e       	add	r10, r18
    23ba:	b3 1e       	adc	r11, r19
    23bc:	21 e0       	ldi	r18, 0x01	; 1
    23be:	c2 2e       	mov	r12, r18
    23c0:	d1 2c       	mov	r13, r1
    23c2:	42 01       	movw	r8, r4
    23c4:	14 c0       	rjmp	.+40     	; 0x23ee <vfprintf+0x162>
    23c6:	92 e0       	ldi	r25, 0x02	; 2
    23c8:	29 2e       	mov	r2, r25
    23ca:	31 2c       	mov	r3, r1
    23cc:	2a 0c       	add	r2, r10
    23ce:	3b 1c       	adc	r3, r11
    23d0:	f5 01       	movw	r30, r10
    23d2:	80 80       	ld	r8, Z
    23d4:	91 80       	ldd	r9, Z+1	; 0x01
    23d6:	16 ff       	sbrs	r17, 6
    23d8:	03 c0       	rjmp	.+6      	; 0x23e0 <vfprintf+0x154>
    23da:	6f 2d       	mov	r22, r15
    23dc:	70 e0       	ldi	r23, 0x00	; 0
    23de:	02 c0       	rjmp	.+4      	; 0x23e4 <vfprintf+0x158>
    23e0:	6f ef       	ldi	r22, 0xFF	; 255
    23e2:	7f ef       	ldi	r23, 0xFF	; 255
    23e4:	c4 01       	movw	r24, r8
    23e6:	0e 94 2f 13 	call	0x265e	; 0x265e <strnlen>
    23ea:	6c 01       	movw	r12, r24
    23ec:	51 01       	movw	r10, r2
    23ee:	1f 77       	andi	r17, 0x7F	; 127
    23f0:	15 c0       	rjmp	.+42     	; 0x241c <vfprintf+0x190>
    23f2:	82 e0       	ldi	r24, 0x02	; 2
    23f4:	28 2e       	mov	r2, r24
    23f6:	31 2c       	mov	r3, r1
    23f8:	2a 0c       	add	r2, r10
    23fa:	3b 1c       	adc	r3, r11
    23fc:	f5 01       	movw	r30, r10
    23fe:	80 80       	ld	r8, Z
    2400:	91 80       	ldd	r9, Z+1	; 0x01
    2402:	16 ff       	sbrs	r17, 6
    2404:	03 c0       	rjmp	.+6      	; 0x240c <vfprintf+0x180>
    2406:	6f 2d       	mov	r22, r15
    2408:	70 e0       	ldi	r23, 0x00	; 0
    240a:	02 c0       	rjmp	.+4      	; 0x2410 <vfprintf+0x184>
    240c:	6f ef       	ldi	r22, 0xFF	; 255
    240e:	7f ef       	ldi	r23, 0xFF	; 255
    2410:	c4 01       	movw	r24, r8
    2412:	0e 94 24 13 	call	0x2648	; 0x2648 <strnlen_P>
    2416:	6c 01       	movw	r12, r24
    2418:	10 68       	ori	r17, 0x80	; 128
    241a:	51 01       	movw	r10, r2
    241c:	13 fd       	sbrc	r17, 3
    241e:	1c c0       	rjmp	.+56     	; 0x2458 <vfprintf+0x1cc>
    2420:	06 c0       	rjmp	.+12     	; 0x242e <vfprintf+0x1a2>
    2422:	80 e2       	ldi	r24, 0x20	; 32
    2424:	90 e0       	ldi	r25, 0x00	; 0
    2426:	b3 01       	movw	r22, r6
    2428:	0e 94 3a 13 	call	0x2674	; 0x2674 <fputc>
    242c:	ea 94       	dec	r14
    242e:	8e 2d       	mov	r24, r14
    2430:	90 e0       	ldi	r25, 0x00	; 0
    2432:	c8 16       	cp	r12, r24
    2434:	d9 06       	cpc	r13, r25
    2436:	a8 f3       	brcs	.-22     	; 0x2422 <vfprintf+0x196>
    2438:	0f c0       	rjmp	.+30     	; 0x2458 <vfprintf+0x1cc>
    243a:	f4 01       	movw	r30, r8
    243c:	17 fd       	sbrc	r17, 7
    243e:	85 91       	lpm	r24, Z+
    2440:	17 ff       	sbrs	r17, 7
    2442:	81 91       	ld	r24, Z+
    2444:	4f 01       	movw	r8, r30
    2446:	90 e0       	ldi	r25, 0x00	; 0
    2448:	b3 01       	movw	r22, r6
    244a:	0e 94 3a 13 	call	0x2674	; 0x2674 <fputc>
    244e:	e1 10       	cpse	r14, r1
    2450:	ea 94       	dec	r14
    2452:	08 94       	sec
    2454:	c1 08       	sbc	r12, r1
    2456:	d1 08       	sbc	r13, r1
    2458:	c1 14       	cp	r12, r1
    245a:	d1 04       	cpc	r13, r1
    245c:	71 f7       	brne	.-36     	; 0x243a <vfprintf+0x1ae>
    245e:	e7 c0       	rjmp	.+462    	; 0x262e <vfprintf+0x3a2>
    2460:	84 36       	cpi	r24, 0x64	; 100
    2462:	11 f0       	breq	.+4      	; 0x2468 <vfprintf+0x1dc>
    2464:	89 36       	cpi	r24, 0x69	; 105
    2466:	51 f5       	brne	.+84     	; 0x24bc <vfprintf+0x230>
    2468:	f5 01       	movw	r30, r10
    246a:	17 ff       	sbrs	r17, 7
    246c:	07 c0       	rjmp	.+14     	; 0x247c <vfprintf+0x1f0>
    246e:	80 81       	ld	r24, Z
    2470:	91 81       	ldd	r25, Z+1	; 0x01
    2472:	a2 81       	ldd	r26, Z+2	; 0x02
    2474:	b3 81       	ldd	r27, Z+3	; 0x03
    2476:	24 e0       	ldi	r18, 0x04	; 4
    2478:	30 e0       	ldi	r19, 0x00	; 0
    247a:	08 c0       	rjmp	.+16     	; 0x248c <vfprintf+0x200>
    247c:	80 81       	ld	r24, Z
    247e:	91 81       	ldd	r25, Z+1	; 0x01
    2480:	aa 27       	eor	r26, r26
    2482:	97 fd       	sbrc	r25, 7
    2484:	a0 95       	com	r26
    2486:	ba 2f       	mov	r27, r26
    2488:	22 e0       	ldi	r18, 0x02	; 2
    248a:	30 e0       	ldi	r19, 0x00	; 0
    248c:	a2 0e       	add	r10, r18
    248e:	b3 1e       	adc	r11, r19
    2490:	01 2f       	mov	r16, r17
    2492:	0f 76       	andi	r16, 0x6F	; 111
    2494:	b7 ff       	sbrs	r27, 7
    2496:	08 c0       	rjmp	.+16     	; 0x24a8 <vfprintf+0x21c>
    2498:	b0 95       	com	r27
    249a:	a0 95       	com	r26
    249c:	90 95       	com	r25
    249e:	81 95       	neg	r24
    24a0:	9f 4f       	sbci	r25, 0xFF	; 255
    24a2:	af 4f       	sbci	r26, 0xFF	; 255
    24a4:	bf 4f       	sbci	r27, 0xFF	; 255
    24a6:	00 68       	ori	r16, 0x80	; 128
    24a8:	bc 01       	movw	r22, r24
    24aa:	cd 01       	movw	r24, r26
    24ac:	a2 01       	movw	r20, r4
    24ae:	2a e0       	ldi	r18, 0x0A	; 10
    24b0:	30 e0       	ldi	r19, 0x00	; 0
    24b2:	0e 94 66 13 	call	0x26cc	; 0x26cc <__ultoa_invert>
    24b6:	d8 2e       	mov	r13, r24
    24b8:	d4 18       	sub	r13, r4
    24ba:	3f c0       	rjmp	.+126    	; 0x253a <vfprintf+0x2ae>
    24bc:	85 37       	cpi	r24, 0x75	; 117
    24be:	21 f4       	brne	.+8      	; 0x24c8 <vfprintf+0x23c>
    24c0:	1f 7e       	andi	r17, 0xEF	; 239
    24c2:	2a e0       	ldi	r18, 0x0A	; 10
    24c4:	30 e0       	ldi	r19, 0x00	; 0
    24c6:	20 c0       	rjmp	.+64     	; 0x2508 <vfprintf+0x27c>
    24c8:	19 7f       	andi	r17, 0xF9	; 249
    24ca:	8f 36       	cpi	r24, 0x6F	; 111
    24cc:	a9 f0       	breq	.+42     	; 0x24f8 <vfprintf+0x26c>
    24ce:	80 37       	cpi	r24, 0x70	; 112
    24d0:	20 f4       	brcc	.+8      	; 0x24da <vfprintf+0x24e>
    24d2:	88 35       	cpi	r24, 0x58	; 88
    24d4:	09 f0       	breq	.+2      	; 0x24d8 <vfprintf+0x24c>
    24d6:	ae c0       	rjmp	.+348    	; 0x2634 <vfprintf+0x3a8>
    24d8:	0b c0       	rjmp	.+22     	; 0x24f0 <vfprintf+0x264>
    24da:	80 37       	cpi	r24, 0x70	; 112
    24dc:	21 f0       	breq	.+8      	; 0x24e6 <vfprintf+0x25a>
    24de:	88 37       	cpi	r24, 0x78	; 120
    24e0:	09 f0       	breq	.+2      	; 0x24e4 <vfprintf+0x258>
    24e2:	a8 c0       	rjmp	.+336    	; 0x2634 <vfprintf+0x3a8>
    24e4:	01 c0       	rjmp	.+2      	; 0x24e8 <vfprintf+0x25c>
    24e6:	10 61       	ori	r17, 0x10	; 16
    24e8:	14 ff       	sbrs	r17, 4
    24ea:	09 c0       	rjmp	.+18     	; 0x24fe <vfprintf+0x272>
    24ec:	14 60       	ori	r17, 0x04	; 4
    24ee:	07 c0       	rjmp	.+14     	; 0x24fe <vfprintf+0x272>
    24f0:	14 ff       	sbrs	r17, 4
    24f2:	08 c0       	rjmp	.+16     	; 0x2504 <vfprintf+0x278>
    24f4:	16 60       	ori	r17, 0x06	; 6
    24f6:	06 c0       	rjmp	.+12     	; 0x2504 <vfprintf+0x278>
    24f8:	28 e0       	ldi	r18, 0x08	; 8
    24fa:	30 e0       	ldi	r19, 0x00	; 0
    24fc:	05 c0       	rjmp	.+10     	; 0x2508 <vfprintf+0x27c>
    24fe:	20 e1       	ldi	r18, 0x10	; 16
    2500:	30 e0       	ldi	r19, 0x00	; 0
    2502:	02 c0       	rjmp	.+4      	; 0x2508 <vfprintf+0x27c>
    2504:	20 e1       	ldi	r18, 0x10	; 16
    2506:	32 e0       	ldi	r19, 0x02	; 2
    2508:	f5 01       	movw	r30, r10
    250a:	17 ff       	sbrs	r17, 7
    250c:	07 c0       	rjmp	.+14     	; 0x251c <vfprintf+0x290>
    250e:	60 81       	ld	r22, Z
    2510:	71 81       	ldd	r23, Z+1	; 0x01
    2512:	82 81       	ldd	r24, Z+2	; 0x02
    2514:	93 81       	ldd	r25, Z+3	; 0x03
    2516:	44 e0       	ldi	r20, 0x04	; 4
    2518:	50 e0       	ldi	r21, 0x00	; 0
    251a:	06 c0       	rjmp	.+12     	; 0x2528 <vfprintf+0x29c>
    251c:	60 81       	ld	r22, Z
    251e:	71 81       	ldd	r23, Z+1	; 0x01
    2520:	80 e0       	ldi	r24, 0x00	; 0
    2522:	90 e0       	ldi	r25, 0x00	; 0
    2524:	42 e0       	ldi	r20, 0x02	; 2
    2526:	50 e0       	ldi	r21, 0x00	; 0
    2528:	a4 0e       	add	r10, r20
    252a:	b5 1e       	adc	r11, r21
    252c:	a2 01       	movw	r20, r4
    252e:	0e 94 66 13 	call	0x26cc	; 0x26cc <__ultoa_invert>
    2532:	d8 2e       	mov	r13, r24
    2534:	d4 18       	sub	r13, r4
    2536:	01 2f       	mov	r16, r17
    2538:	0f 77       	andi	r16, 0x7F	; 127
    253a:	06 ff       	sbrs	r16, 6
    253c:	09 c0       	rjmp	.+18     	; 0x2550 <vfprintf+0x2c4>
    253e:	0e 7f       	andi	r16, 0xFE	; 254
    2540:	df 14       	cp	r13, r15
    2542:	30 f4       	brcc	.+12     	; 0x2550 <vfprintf+0x2c4>
    2544:	04 ff       	sbrs	r16, 4
    2546:	06 c0       	rjmp	.+12     	; 0x2554 <vfprintf+0x2c8>
    2548:	02 fd       	sbrc	r16, 2
    254a:	04 c0       	rjmp	.+8      	; 0x2554 <vfprintf+0x2c8>
    254c:	0f 7e       	andi	r16, 0xEF	; 239
    254e:	02 c0       	rjmp	.+4      	; 0x2554 <vfprintf+0x2c8>
    2550:	1d 2d       	mov	r17, r13
    2552:	01 c0       	rjmp	.+2      	; 0x2556 <vfprintf+0x2ca>
    2554:	1f 2d       	mov	r17, r15
    2556:	80 2f       	mov	r24, r16
    2558:	90 e0       	ldi	r25, 0x00	; 0
    255a:	04 ff       	sbrs	r16, 4
    255c:	0c c0       	rjmp	.+24     	; 0x2576 <vfprintf+0x2ea>
    255e:	fe 01       	movw	r30, r28
    2560:	ed 0d       	add	r30, r13
    2562:	f1 1d       	adc	r31, r1
    2564:	20 81       	ld	r18, Z
    2566:	20 33       	cpi	r18, 0x30	; 48
    2568:	11 f4       	brne	.+4      	; 0x256e <vfprintf+0x2e2>
    256a:	09 7e       	andi	r16, 0xE9	; 233
    256c:	09 c0       	rjmp	.+18     	; 0x2580 <vfprintf+0x2f4>
    256e:	02 ff       	sbrs	r16, 2
    2570:	06 c0       	rjmp	.+12     	; 0x257e <vfprintf+0x2f2>
    2572:	1e 5f       	subi	r17, 0xFE	; 254
    2574:	05 c0       	rjmp	.+10     	; 0x2580 <vfprintf+0x2f4>
    2576:	86 78       	andi	r24, 0x86	; 134
    2578:	90 70       	andi	r25, 0x00	; 0
    257a:	00 97       	sbiw	r24, 0x00	; 0
    257c:	09 f0       	breq	.+2      	; 0x2580 <vfprintf+0x2f4>
    257e:	1f 5f       	subi	r17, 0xFF	; 255
    2580:	80 2e       	mov	r8, r16
    2582:	99 24       	eor	r9, r9
    2584:	03 fd       	sbrc	r16, 3
    2586:	12 c0       	rjmp	.+36     	; 0x25ac <vfprintf+0x320>
    2588:	00 ff       	sbrs	r16, 0
    258a:	0d c0       	rjmp	.+26     	; 0x25a6 <vfprintf+0x31a>
    258c:	fd 2c       	mov	r15, r13
    258e:	1e 15       	cp	r17, r14
    2590:	50 f4       	brcc	.+20     	; 0x25a6 <vfprintf+0x31a>
    2592:	fe 0c       	add	r15, r14
    2594:	f1 1a       	sub	r15, r17
    2596:	1e 2d       	mov	r17, r14
    2598:	06 c0       	rjmp	.+12     	; 0x25a6 <vfprintf+0x31a>
    259a:	80 e2       	ldi	r24, 0x20	; 32
    259c:	90 e0       	ldi	r25, 0x00	; 0
    259e:	b3 01       	movw	r22, r6
    25a0:	0e 94 3a 13 	call	0x2674	; 0x2674 <fputc>
    25a4:	1f 5f       	subi	r17, 0xFF	; 255
    25a6:	1e 15       	cp	r17, r14
    25a8:	c0 f3       	brcs	.-16     	; 0x259a <vfprintf+0x30e>
    25aa:	04 c0       	rjmp	.+8      	; 0x25b4 <vfprintf+0x328>
    25ac:	1e 15       	cp	r17, r14
    25ae:	10 f4       	brcc	.+4      	; 0x25b4 <vfprintf+0x328>
    25b0:	e1 1a       	sub	r14, r17
    25b2:	01 c0       	rjmp	.+2      	; 0x25b6 <vfprintf+0x32a>
    25b4:	ee 24       	eor	r14, r14
    25b6:	84 fe       	sbrs	r8, 4
    25b8:	0f c0       	rjmp	.+30     	; 0x25d8 <vfprintf+0x34c>
    25ba:	80 e3       	ldi	r24, 0x30	; 48
    25bc:	90 e0       	ldi	r25, 0x00	; 0
    25be:	b3 01       	movw	r22, r6
    25c0:	0e 94 3a 13 	call	0x2674	; 0x2674 <fputc>
    25c4:	82 fe       	sbrs	r8, 2
    25c6:	1f c0       	rjmp	.+62     	; 0x2606 <vfprintf+0x37a>
    25c8:	81 fe       	sbrs	r8, 1
    25ca:	03 c0       	rjmp	.+6      	; 0x25d2 <vfprintf+0x346>
    25cc:	88 e5       	ldi	r24, 0x58	; 88
    25ce:	90 e0       	ldi	r25, 0x00	; 0
    25d0:	10 c0       	rjmp	.+32     	; 0x25f2 <vfprintf+0x366>
    25d2:	88 e7       	ldi	r24, 0x78	; 120
    25d4:	90 e0       	ldi	r25, 0x00	; 0
    25d6:	0d c0       	rjmp	.+26     	; 0x25f2 <vfprintf+0x366>
    25d8:	c4 01       	movw	r24, r8
    25da:	86 78       	andi	r24, 0x86	; 134
    25dc:	90 70       	andi	r25, 0x00	; 0
    25de:	00 97       	sbiw	r24, 0x00	; 0
    25e0:	91 f0       	breq	.+36     	; 0x2606 <vfprintf+0x37a>
    25e2:	81 fc       	sbrc	r8, 1
    25e4:	02 c0       	rjmp	.+4      	; 0x25ea <vfprintf+0x35e>
    25e6:	80 e2       	ldi	r24, 0x20	; 32
    25e8:	01 c0       	rjmp	.+2      	; 0x25ec <vfprintf+0x360>
    25ea:	8b e2       	ldi	r24, 0x2B	; 43
    25ec:	07 fd       	sbrc	r16, 7
    25ee:	8d e2       	ldi	r24, 0x2D	; 45
    25f0:	90 e0       	ldi	r25, 0x00	; 0
    25f2:	b3 01       	movw	r22, r6
    25f4:	0e 94 3a 13 	call	0x2674	; 0x2674 <fputc>
    25f8:	06 c0       	rjmp	.+12     	; 0x2606 <vfprintf+0x37a>
    25fa:	80 e3       	ldi	r24, 0x30	; 48
    25fc:	90 e0       	ldi	r25, 0x00	; 0
    25fe:	b3 01       	movw	r22, r6
    2600:	0e 94 3a 13 	call	0x2674	; 0x2674 <fputc>
    2604:	fa 94       	dec	r15
    2606:	df 14       	cp	r13, r15
    2608:	c0 f3       	brcs	.-16     	; 0x25fa <vfprintf+0x36e>
    260a:	da 94       	dec	r13
    260c:	f2 01       	movw	r30, r4
    260e:	ed 0d       	add	r30, r13
    2610:	f1 1d       	adc	r31, r1
    2612:	80 81       	ld	r24, Z
    2614:	90 e0       	ldi	r25, 0x00	; 0
    2616:	b3 01       	movw	r22, r6
    2618:	0e 94 3a 13 	call	0x2674	; 0x2674 <fputc>
    261c:	dd 20       	and	r13, r13
    261e:	a9 f7       	brne	.-22     	; 0x260a <vfprintf+0x37e>
    2620:	06 c0       	rjmp	.+12     	; 0x262e <vfprintf+0x3a2>
    2622:	80 e2       	ldi	r24, 0x20	; 32
    2624:	90 e0       	ldi	r25, 0x00	; 0
    2626:	b3 01       	movw	r22, r6
    2628:	0e 94 3a 13 	call	0x2674	; 0x2674 <fputc>
    262c:	ea 94       	dec	r14
    262e:	ee 20       	and	r14, r14
    2630:	c1 f7       	brne	.-16     	; 0x2622 <vfprintf+0x396>
    2632:	40 ce       	rjmp	.-896    	; 0x22b4 <vfprintf+0x28>
    2634:	f3 01       	movw	r30, r6
    2636:	86 81       	ldd	r24, Z+6	; 0x06
    2638:	97 81       	ldd	r25, Z+7	; 0x07
    263a:	02 c0       	rjmp	.+4      	; 0x2640 <vfprintf+0x3b4>
    263c:	8f ef       	ldi	r24, 0xFF	; 255
    263e:	9f ef       	ldi	r25, 0xFF	; 255
    2640:	2d 96       	adiw	r28, 0x0d	; 13
    2642:	e2 e1       	ldi	r30, 0x12	; 18
    2644:	0c 94 e0 13 	jmp	0x27c0	; 0x27c0 <__epilogue_restores__>

00002648 <strnlen_P>:
    2648:	fc 01       	movw	r30, r24
    264a:	05 90       	lpm	r0, Z+
    264c:	61 50       	subi	r22, 0x01	; 1
    264e:	70 40       	sbci	r23, 0x00	; 0
    2650:	01 10       	cpse	r0, r1
    2652:	d8 f7       	brcc	.-10     	; 0x264a <strnlen_P+0x2>
    2654:	80 95       	com	r24
    2656:	90 95       	com	r25
    2658:	8e 0f       	add	r24, r30
    265a:	9f 1f       	adc	r25, r31
    265c:	08 95       	ret

0000265e <strnlen>:
    265e:	fc 01       	movw	r30, r24
    2660:	61 50       	subi	r22, 0x01	; 1
    2662:	70 40       	sbci	r23, 0x00	; 0
    2664:	01 90       	ld	r0, Z+
    2666:	01 10       	cpse	r0, r1
    2668:	d8 f7       	brcc	.-10     	; 0x2660 <strnlen+0x2>
    266a:	80 95       	com	r24
    266c:	90 95       	com	r25
    266e:	8e 0f       	add	r24, r30
    2670:	9f 1f       	adc	r25, r31
    2672:	08 95       	ret

00002674 <fputc>:
    2674:	0f 93       	push	r16
    2676:	1f 93       	push	r17
    2678:	cf 93       	push	r28
    267a:	df 93       	push	r29
    267c:	8c 01       	movw	r16, r24
    267e:	eb 01       	movw	r28, r22
    2680:	8b 81       	ldd	r24, Y+3	; 0x03
    2682:	81 ff       	sbrs	r24, 1
    2684:	1b c0       	rjmp	.+54     	; 0x26bc <fputc+0x48>
    2686:	82 ff       	sbrs	r24, 2
    2688:	0d c0       	rjmp	.+26     	; 0x26a4 <fputc+0x30>
    268a:	2e 81       	ldd	r18, Y+6	; 0x06
    268c:	3f 81       	ldd	r19, Y+7	; 0x07
    268e:	8c 81       	ldd	r24, Y+4	; 0x04
    2690:	9d 81       	ldd	r25, Y+5	; 0x05
    2692:	28 17       	cp	r18, r24
    2694:	39 07       	cpc	r19, r25
    2696:	64 f4       	brge	.+24     	; 0x26b0 <fputc+0x3c>
    2698:	e8 81       	ld	r30, Y
    269a:	f9 81       	ldd	r31, Y+1	; 0x01
    269c:	01 93       	st	Z+, r16
    269e:	f9 83       	std	Y+1, r31	; 0x01
    26a0:	e8 83       	st	Y, r30
    26a2:	06 c0       	rjmp	.+12     	; 0x26b0 <fputc+0x3c>
    26a4:	e8 85       	ldd	r30, Y+8	; 0x08
    26a6:	f9 85       	ldd	r31, Y+9	; 0x09
    26a8:	80 2f       	mov	r24, r16
    26aa:	09 95       	icall
    26ac:	00 97       	sbiw	r24, 0x00	; 0
    26ae:	31 f4       	brne	.+12     	; 0x26bc <fputc+0x48>
    26b0:	8e 81       	ldd	r24, Y+6	; 0x06
    26b2:	9f 81       	ldd	r25, Y+7	; 0x07
    26b4:	01 96       	adiw	r24, 0x01	; 1
    26b6:	9f 83       	std	Y+7, r25	; 0x07
    26b8:	8e 83       	std	Y+6, r24	; 0x06
    26ba:	02 c0       	rjmp	.+4      	; 0x26c0 <fputc+0x4c>
    26bc:	0f ef       	ldi	r16, 0xFF	; 255
    26be:	1f ef       	ldi	r17, 0xFF	; 255
    26c0:	c8 01       	movw	r24, r16
    26c2:	df 91       	pop	r29
    26c4:	cf 91       	pop	r28
    26c6:	1f 91       	pop	r17
    26c8:	0f 91       	pop	r16
    26ca:	08 95       	ret

000026cc <__ultoa_invert>:
    26cc:	fa 01       	movw	r30, r20
    26ce:	aa 27       	eor	r26, r26
    26d0:	28 30       	cpi	r18, 0x08	; 8
    26d2:	51 f1       	breq	.+84     	; 0x2728 <__ultoa_invert+0x5c>
    26d4:	20 31       	cpi	r18, 0x10	; 16
    26d6:	81 f1       	breq	.+96     	; 0x2738 <__ultoa_invert+0x6c>
    26d8:	e8 94       	clt
    26da:	6f 93       	push	r22
    26dc:	6e 7f       	andi	r22, 0xFE	; 254
    26de:	6e 5f       	subi	r22, 0xFE	; 254
    26e0:	7f 4f       	sbci	r23, 0xFF	; 255
    26e2:	8f 4f       	sbci	r24, 0xFF	; 255
    26e4:	9f 4f       	sbci	r25, 0xFF	; 255
    26e6:	af 4f       	sbci	r26, 0xFF	; 255
    26e8:	b1 e0       	ldi	r27, 0x01	; 1
    26ea:	3e d0       	rcall	.+124    	; 0x2768 <__ultoa_invert+0x9c>
    26ec:	b4 e0       	ldi	r27, 0x04	; 4
    26ee:	3c d0       	rcall	.+120    	; 0x2768 <__ultoa_invert+0x9c>
    26f0:	67 0f       	add	r22, r23
    26f2:	78 1f       	adc	r23, r24
    26f4:	89 1f       	adc	r24, r25
    26f6:	9a 1f       	adc	r25, r26
    26f8:	a1 1d       	adc	r26, r1
    26fa:	68 0f       	add	r22, r24
    26fc:	79 1f       	adc	r23, r25
    26fe:	8a 1f       	adc	r24, r26
    2700:	91 1d       	adc	r25, r1
    2702:	a1 1d       	adc	r26, r1
    2704:	6a 0f       	add	r22, r26
    2706:	71 1d       	adc	r23, r1
    2708:	81 1d       	adc	r24, r1
    270a:	91 1d       	adc	r25, r1
    270c:	a1 1d       	adc	r26, r1
    270e:	20 d0       	rcall	.+64     	; 0x2750 <__ultoa_invert+0x84>
    2710:	09 f4       	brne	.+2      	; 0x2714 <__ultoa_invert+0x48>
    2712:	68 94       	set
    2714:	3f 91       	pop	r19
    2716:	2a e0       	ldi	r18, 0x0A	; 10
    2718:	26 9f       	mul	r18, r22
    271a:	11 24       	eor	r1, r1
    271c:	30 19       	sub	r19, r0
    271e:	30 5d       	subi	r19, 0xD0	; 208
    2720:	31 93       	st	Z+, r19
    2722:	de f6       	brtc	.-74     	; 0x26da <__ultoa_invert+0xe>
    2724:	cf 01       	movw	r24, r30
    2726:	08 95       	ret
    2728:	46 2f       	mov	r20, r22
    272a:	47 70       	andi	r20, 0x07	; 7
    272c:	40 5d       	subi	r20, 0xD0	; 208
    272e:	41 93       	st	Z+, r20
    2730:	b3 e0       	ldi	r27, 0x03	; 3
    2732:	0f d0       	rcall	.+30     	; 0x2752 <__ultoa_invert+0x86>
    2734:	c9 f7       	brne	.-14     	; 0x2728 <__ultoa_invert+0x5c>
    2736:	f6 cf       	rjmp	.-20     	; 0x2724 <__ultoa_invert+0x58>
    2738:	46 2f       	mov	r20, r22
    273a:	4f 70       	andi	r20, 0x0F	; 15
    273c:	40 5d       	subi	r20, 0xD0	; 208
    273e:	4a 33       	cpi	r20, 0x3A	; 58
    2740:	18 f0       	brcs	.+6      	; 0x2748 <__ultoa_invert+0x7c>
    2742:	49 5d       	subi	r20, 0xD9	; 217
    2744:	31 fd       	sbrc	r19, 1
    2746:	40 52       	subi	r20, 0x20	; 32
    2748:	41 93       	st	Z+, r20
    274a:	02 d0       	rcall	.+4      	; 0x2750 <__ultoa_invert+0x84>
    274c:	a9 f7       	brne	.-22     	; 0x2738 <__ultoa_invert+0x6c>
    274e:	ea cf       	rjmp	.-44     	; 0x2724 <__ultoa_invert+0x58>
    2750:	b4 e0       	ldi	r27, 0x04	; 4
    2752:	a6 95       	lsr	r26
    2754:	97 95       	ror	r25
    2756:	87 95       	ror	r24
    2758:	77 95       	ror	r23
    275a:	67 95       	ror	r22
    275c:	ba 95       	dec	r27
    275e:	c9 f7       	brne	.-14     	; 0x2752 <__ultoa_invert+0x86>
    2760:	00 97       	sbiw	r24, 0x00	; 0
    2762:	61 05       	cpc	r22, r1
    2764:	71 05       	cpc	r23, r1
    2766:	08 95       	ret
    2768:	9b 01       	movw	r18, r22
    276a:	ac 01       	movw	r20, r24
    276c:	0a 2e       	mov	r0, r26
    276e:	06 94       	lsr	r0
    2770:	57 95       	ror	r21
    2772:	47 95       	ror	r20
    2774:	37 95       	ror	r19
    2776:	27 95       	ror	r18
    2778:	ba 95       	dec	r27
    277a:	c9 f7       	brne	.-14     	; 0x276e <__ultoa_invert+0xa2>
    277c:	62 0f       	add	r22, r18
    277e:	73 1f       	adc	r23, r19
    2780:	84 1f       	adc	r24, r20
    2782:	95 1f       	adc	r25, r21
    2784:	a0 1d       	adc	r26, r0
    2786:	08 95       	ret

00002788 <__prologue_saves__>:
    2788:	2f 92       	push	r2
    278a:	3f 92       	push	r3
    278c:	4f 92       	push	r4
    278e:	5f 92       	push	r5
    2790:	6f 92       	push	r6
    2792:	7f 92       	push	r7
    2794:	8f 92       	push	r8
    2796:	9f 92       	push	r9
    2798:	af 92       	push	r10
    279a:	bf 92       	push	r11
    279c:	cf 92       	push	r12
    279e:	df 92       	push	r13
    27a0:	ef 92       	push	r14
    27a2:	ff 92       	push	r15
    27a4:	0f 93       	push	r16
    27a6:	1f 93       	push	r17
    27a8:	cf 93       	push	r28
    27aa:	df 93       	push	r29
    27ac:	cd b7       	in	r28, 0x3d	; 61
    27ae:	de b7       	in	r29, 0x3e	; 62
    27b0:	ca 1b       	sub	r28, r26
    27b2:	db 0b       	sbc	r29, r27
    27b4:	0f b6       	in	r0, 0x3f	; 63
    27b6:	f8 94       	cli
    27b8:	de bf       	out	0x3e, r29	; 62
    27ba:	0f be       	out	0x3f, r0	; 63
    27bc:	cd bf       	out	0x3d, r28	; 61
    27be:	09 94       	ijmp

000027c0 <__epilogue_restores__>:
    27c0:	2a 88       	ldd	r2, Y+18	; 0x12
    27c2:	39 88       	ldd	r3, Y+17	; 0x11
    27c4:	48 88       	ldd	r4, Y+16	; 0x10
    27c6:	5f 84       	ldd	r5, Y+15	; 0x0f
    27c8:	6e 84       	ldd	r6, Y+14	; 0x0e
    27ca:	7d 84       	ldd	r7, Y+13	; 0x0d
    27cc:	8c 84       	ldd	r8, Y+12	; 0x0c
    27ce:	9b 84       	ldd	r9, Y+11	; 0x0b
    27d0:	aa 84       	ldd	r10, Y+10	; 0x0a
    27d2:	b9 84       	ldd	r11, Y+9	; 0x09
    27d4:	c8 84       	ldd	r12, Y+8	; 0x08
    27d6:	df 80       	ldd	r13, Y+7	; 0x07
    27d8:	ee 80       	ldd	r14, Y+6	; 0x06
    27da:	fd 80       	ldd	r15, Y+5	; 0x05
    27dc:	0c 81       	ldd	r16, Y+4	; 0x04
    27de:	1b 81       	ldd	r17, Y+3	; 0x03
    27e0:	aa 81       	ldd	r26, Y+2	; 0x02
    27e2:	b9 81       	ldd	r27, Y+1	; 0x01
    27e4:	ce 0f       	add	r28, r30
    27e6:	d1 1d       	adc	r29, r1
    27e8:	0f b6       	in	r0, 0x3f	; 63
    27ea:	f8 94       	cli
    27ec:	de bf       	out	0x3e, r29	; 62
    27ee:	0f be       	out	0x3f, r0	; 63
    27f0:	cd bf       	out	0x3d, r28	; 61
    27f2:	ed 01       	movw	r28, r26
    27f4:	08 95       	ret

000027f6 <_exit>:
    27f6:	f8 94       	cli

000027f8 <__stop_program>:
    27f8:	ff cf       	rjmp	.-2      	; 0x27f8 <__stop_program>
